ARM GAS  C:\Users\Greg\AppData\Local\Temp\ccTcgJkH.s 			page 1


   1              		.syntax unified
   2              		.cpu cortex-m3
   3              		.fpu softvfp
   4              		.eabi_attribute 20, 1
   5              		.eabi_attribute 21, 1
   6              		.eabi_attribute 23, 3
   7              		.eabi_attribute 24, 1
   8              		.eabi_attribute 25, 1
   9              		.eabi_attribute 26, 1
  10              		.eabi_attribute 30, 1
  11              		.eabi_attribute 34, 1
  12              		.eabi_attribute 18, 4
  13              		.thumb
  14              		.file	"cyfitter_cfg.c"
  15              		.text
  16              	.Ltext0:
  17              		.cfi_sections	.debug_frame
  18              		.section	.text.cfg_write_bytes32,"ax",%progbits
  19              		.align	2
  20              		.thumb
  21              		.thumb_func
  22              		.type	cfg_write_bytes32, %function
  23              	cfg_write_bytes32:
  24              	.LFB3:
  25              		.file 1 ".\\Generated_Source\\PSoC5\\cyfitter_cfg.c"
   1:.\Generated_Source\PSoC5/cyfitter_cfg.c **** /*******************************************************************************
   2:.\Generated_Source\PSoC5/cyfitter_cfg.c **** * File Name: cyfitter_cfg.c
   3:.\Generated_Source\PSoC5/cyfitter_cfg.c **** * 
   4:.\Generated_Source\PSoC5/cyfitter_cfg.c **** * PSoC Creator  3.3
   5:.\Generated_Source\PSoC5/cyfitter_cfg.c **** *
   6:.\Generated_Source\PSoC5/cyfitter_cfg.c **** * Description:
   7:.\Generated_Source\PSoC5/cyfitter_cfg.c **** * This file contains device initialization code.
   8:.\Generated_Source\PSoC5/cyfitter_cfg.c **** * Except for the user defined sections in CyClockStartupError(), this file should not be modified.
   9:.\Generated_Source\PSoC5/cyfitter_cfg.c **** * This file is automatically generated by PSoC Creator.
  10:.\Generated_Source\PSoC5/cyfitter_cfg.c **** *
  11:.\Generated_Source\PSoC5/cyfitter_cfg.c **** ********************************************************************************
  12:.\Generated_Source\PSoC5/cyfitter_cfg.c **** * Copyright (c) 2007-2015 Cypress Semiconductor.  All rights reserved.
  13:.\Generated_Source\PSoC5/cyfitter_cfg.c **** * You may use this file only in accordance with the license, terms, conditions, 
  14:.\Generated_Source\PSoC5/cyfitter_cfg.c **** * disclaimers, and limitations in the end user license agreement accompanying 
  15:.\Generated_Source\PSoC5/cyfitter_cfg.c **** * the software package with which this file was provided.
  16:.\Generated_Source\PSoC5/cyfitter_cfg.c **** ********************************************************************************/
  17:.\Generated_Source\PSoC5/cyfitter_cfg.c **** 
  18:.\Generated_Source\PSoC5/cyfitter_cfg.c **** #include <string.h>
  19:.\Generated_Source\PSoC5/cyfitter_cfg.c **** #include "cytypes.h"
  20:.\Generated_Source\PSoC5/cyfitter_cfg.c **** #include "cydevice_trm.h"
  21:.\Generated_Source\PSoC5/cyfitter_cfg.c **** #include "cyfitter.h"
  22:.\Generated_Source\PSoC5/cyfitter_cfg.c **** #include "CyLib.h"
  23:.\Generated_Source\PSoC5/cyfitter_cfg.c **** #include "cyfitter_cfg.h"
  24:.\Generated_Source\PSoC5/cyfitter_cfg.c **** 
  25:.\Generated_Source\PSoC5/cyfitter_cfg.c **** 
  26:.\Generated_Source\PSoC5/cyfitter_cfg.c **** #if defined(__GNUC__) || defined(__ARMCC_VERSION)
  27:.\Generated_Source\PSoC5/cyfitter_cfg.c ****     #define CYPACKED 
  28:.\Generated_Source\PSoC5/cyfitter_cfg.c ****     #define CYPACKED_ATTR __attribute__ ((packed))
  29:.\Generated_Source\PSoC5/cyfitter_cfg.c ****     #define CYALIGNED __attribute__ ((aligned))
  30:.\Generated_Source\PSoC5/cyfitter_cfg.c ****     #define CY_CFG_UNUSED __attribute__ ((unused))
  31:.\Generated_Source\PSoC5/cyfitter_cfg.c ****     #define CY_CFG_SECTION __attribute__ ((section(".psocinit")))
  32:.\Generated_Source\PSoC5/cyfitter_cfg.c ****     
ARM GAS  C:\Users\Greg\AppData\Local\Temp\ccTcgJkH.s 			page 2


  33:.\Generated_Source\PSoC5/cyfitter_cfg.c ****     #if defined(__ARMCC_VERSION)
  34:.\Generated_Source\PSoC5/cyfitter_cfg.c ****         #define CY_CFG_MEMORY_BARRIER() __memory_changed()
  35:.\Generated_Source\PSoC5/cyfitter_cfg.c ****     #else
  36:.\Generated_Source\PSoC5/cyfitter_cfg.c ****         #define CY_CFG_MEMORY_BARRIER() __sync_synchronize()
  37:.\Generated_Source\PSoC5/cyfitter_cfg.c ****     #endif
  38:.\Generated_Source\PSoC5/cyfitter_cfg.c ****     
  39:.\Generated_Source\PSoC5/cyfitter_cfg.c **** #elif defined(__ICCARM__)
  40:.\Generated_Source\PSoC5/cyfitter_cfg.c ****     #include <intrinsics.h>
  41:.\Generated_Source\PSoC5/cyfitter_cfg.c **** 
  42:.\Generated_Source\PSoC5/cyfitter_cfg.c ****     #define CYPACKED __packed
  43:.\Generated_Source\PSoC5/cyfitter_cfg.c ****     #define CYPACKED_ATTR 
  44:.\Generated_Source\PSoC5/cyfitter_cfg.c ****     #define CYALIGNED _Pragma("data_alignment=4")
  45:.\Generated_Source\PSoC5/cyfitter_cfg.c ****     #define CY_CFG_UNUSED _Pragma("diag_suppress=Pe177")
  46:.\Generated_Source\PSoC5/cyfitter_cfg.c ****     #define CY_CFG_SECTION _Pragma("location=\".psocinit\"")
  47:.\Generated_Source\PSoC5/cyfitter_cfg.c ****     
  48:.\Generated_Source\PSoC5/cyfitter_cfg.c ****     #define CY_CFG_MEMORY_BARRIER() __DMB()
  49:.\Generated_Source\PSoC5/cyfitter_cfg.c ****     
  50:.\Generated_Source\PSoC5/cyfitter_cfg.c **** #else
  51:.\Generated_Source\PSoC5/cyfitter_cfg.c ****     #error Unsupported toolchain
  52:.\Generated_Source\PSoC5/cyfitter_cfg.c **** #endif
  53:.\Generated_Source\PSoC5/cyfitter_cfg.c **** 
  54:.\Generated_Source\PSoC5/cyfitter_cfg.c **** 
  55:.\Generated_Source\PSoC5/cyfitter_cfg.c **** CY_CFG_UNUSED
  56:.\Generated_Source\PSoC5/cyfitter_cfg.c **** static void CYMEMZERO(void *s, size_t n);
  57:.\Generated_Source\PSoC5/cyfitter_cfg.c **** CY_CFG_UNUSED
  58:.\Generated_Source\PSoC5/cyfitter_cfg.c **** static void CYMEMZERO(void *s, size_t n)
  59:.\Generated_Source\PSoC5/cyfitter_cfg.c **** {
  60:.\Generated_Source\PSoC5/cyfitter_cfg.c **** 	(void)memset(s, 0, n);
  61:.\Generated_Source\PSoC5/cyfitter_cfg.c **** }
  62:.\Generated_Source\PSoC5/cyfitter_cfg.c **** CY_CFG_UNUSED
  63:.\Generated_Source\PSoC5/cyfitter_cfg.c **** static void CYCONFIGCPY(void *dest, const void *src, size_t n);
  64:.\Generated_Source\PSoC5/cyfitter_cfg.c **** CY_CFG_UNUSED
  65:.\Generated_Source\PSoC5/cyfitter_cfg.c **** static void CYCONFIGCPY(void *dest, const void *src, size_t n)
  66:.\Generated_Source\PSoC5/cyfitter_cfg.c **** {
  67:.\Generated_Source\PSoC5/cyfitter_cfg.c **** 	(void)memcpy(dest, src, n);
  68:.\Generated_Source\PSoC5/cyfitter_cfg.c **** }
  69:.\Generated_Source\PSoC5/cyfitter_cfg.c **** CY_CFG_UNUSED
  70:.\Generated_Source\PSoC5/cyfitter_cfg.c **** static void CYCONFIGCPYCODE(void *dest, const void *src, size_t n);
  71:.\Generated_Source\PSoC5/cyfitter_cfg.c **** CY_CFG_UNUSED
  72:.\Generated_Source\PSoC5/cyfitter_cfg.c **** static void CYCONFIGCPYCODE(void *dest, const void *src, size_t n)
  73:.\Generated_Source\PSoC5/cyfitter_cfg.c **** {
  74:.\Generated_Source\PSoC5/cyfitter_cfg.c **** 	(void)memcpy(dest, src, n);
  75:.\Generated_Source\PSoC5/cyfitter_cfg.c **** }
  76:.\Generated_Source\PSoC5/cyfitter_cfg.c **** 
  77:.\Generated_Source\PSoC5/cyfitter_cfg.c **** 
  78:.\Generated_Source\PSoC5/cyfitter_cfg.c **** 
  79:.\Generated_Source\PSoC5/cyfitter_cfg.c **** /* Clock startup error codes                                                   */
  80:.\Generated_Source\PSoC5/cyfitter_cfg.c **** #define CYCLOCKSTART_NO_ERROR    0u
  81:.\Generated_Source\PSoC5/cyfitter_cfg.c **** #define CYCLOCKSTART_XTAL_ERROR  1u
  82:.\Generated_Source\PSoC5/cyfitter_cfg.c **** #define CYCLOCKSTART_32KHZ_ERROR 2u
  83:.\Generated_Source\PSoC5/cyfitter_cfg.c **** #define CYCLOCKSTART_PLL_ERROR   3u
  84:.\Generated_Source\PSoC5/cyfitter_cfg.c **** 
  85:.\Generated_Source\PSoC5/cyfitter_cfg.c **** #ifdef CY_NEED_CYCLOCKSTARTUPERROR
  86:.\Generated_Source\PSoC5/cyfitter_cfg.c **** /*******************************************************************************
  87:.\Generated_Source\PSoC5/cyfitter_cfg.c **** * Function Name: CyClockStartupError
  88:.\Generated_Source\PSoC5/cyfitter_cfg.c **** ********************************************************************************
  89:.\Generated_Source\PSoC5/cyfitter_cfg.c **** * Summary:
ARM GAS  C:\Users\Greg\AppData\Local\Temp\ccTcgJkH.s 			page 3


  90:.\Generated_Source\PSoC5/cyfitter_cfg.c **** *  If an error is encountered during clock configuration (crystal startup error,
  91:.\Generated_Source\PSoC5/cyfitter_cfg.c **** *  PLL lock error, etc.), the system will end up here.  Unless reimplemented by
  92:.\Generated_Source\PSoC5/cyfitter_cfg.c **** *  the customer, this function will stop in an infinite loop.
  93:.\Generated_Source\PSoC5/cyfitter_cfg.c **** *
  94:.\Generated_Source\PSoC5/cyfitter_cfg.c **** * Parameters:
  95:.\Generated_Source\PSoC5/cyfitter_cfg.c **** *   void
  96:.\Generated_Source\PSoC5/cyfitter_cfg.c **** *
  97:.\Generated_Source\PSoC5/cyfitter_cfg.c **** * Return:
  98:.\Generated_Source\PSoC5/cyfitter_cfg.c **** *   void
  99:.\Generated_Source\PSoC5/cyfitter_cfg.c **** *
 100:.\Generated_Source\PSoC5/cyfitter_cfg.c **** *******************************************************************************/
 101:.\Generated_Source\PSoC5/cyfitter_cfg.c **** CY_CFG_UNUSED
 102:.\Generated_Source\PSoC5/cyfitter_cfg.c **** static void CyClockStartupError(uint8 errorCode);
 103:.\Generated_Source\PSoC5/cyfitter_cfg.c **** CY_CFG_UNUSED
 104:.\Generated_Source\PSoC5/cyfitter_cfg.c **** static void CyClockStartupError(uint8 errorCode)
 105:.\Generated_Source\PSoC5/cyfitter_cfg.c **** {
 106:.\Generated_Source\PSoC5/cyfitter_cfg.c ****     /* To remove the compiler warning if errorCode not used.                */
 107:.\Generated_Source\PSoC5/cyfitter_cfg.c ****     errorCode = errorCode;
 108:.\Generated_Source\PSoC5/cyfitter_cfg.c **** 
 109:.\Generated_Source\PSoC5/cyfitter_cfg.c ****     /* `#START CyClockStartupError` */
 110:.\Generated_Source\PSoC5/cyfitter_cfg.c **** 
 111:.\Generated_Source\PSoC5/cyfitter_cfg.c ****     /* If we have a clock startup error (bad MHz crystal, PLL lock, etc.),  */
 112:.\Generated_Source\PSoC5/cyfitter_cfg.c ****     /* we will end up here to allow the customer to implement something to  */
 113:.\Generated_Source\PSoC5/cyfitter_cfg.c ****     /* deal with the clock condition.                                       */
 114:.\Generated_Source\PSoC5/cyfitter_cfg.c **** 
 115:.\Generated_Source\PSoC5/cyfitter_cfg.c ****     /* `#END` */
 116:.\Generated_Source\PSoC5/cyfitter_cfg.c **** 
 117:.\Generated_Source\PSoC5/cyfitter_cfg.c ****     /* If nothing else, stop here since the clocks have not started         */
 118:.\Generated_Source\PSoC5/cyfitter_cfg.c ****     /* correctly.                                                           */
 119:.\Generated_Source\PSoC5/cyfitter_cfg.c ****     while(1) {}
 120:.\Generated_Source\PSoC5/cyfitter_cfg.c **** }
 121:.\Generated_Source\PSoC5/cyfitter_cfg.c **** #endif
 122:.\Generated_Source\PSoC5/cyfitter_cfg.c **** 
 123:.\Generated_Source\PSoC5/cyfitter_cfg.c **** #define CY_CFG_BASE_ADDR_COUNT 37u
 124:.\Generated_Source\PSoC5/cyfitter_cfg.c **** CYPACKED typedef struct
 125:.\Generated_Source\PSoC5/cyfitter_cfg.c **** {
 126:.\Generated_Source\PSoC5/cyfitter_cfg.c **** 	uint8 offset;
 127:.\Generated_Source\PSoC5/cyfitter_cfg.c **** 	uint8 value;
 128:.\Generated_Source\PSoC5/cyfitter_cfg.c **** } CYPACKED_ATTR cy_cfg_addrvalue_t;
 129:.\Generated_Source\PSoC5/cyfitter_cfg.c **** 
 130:.\Generated_Source\PSoC5/cyfitter_cfg.c **** #define cy_cfg_addr_table ((const uint32 CYFAR *)0x48000000u)
 131:.\Generated_Source\PSoC5/cyfitter_cfg.c **** #define cy_cfg_data_table ((const cy_cfg_addrvalue_t CYFAR *)0x48000094u)
 132:.\Generated_Source\PSoC5/cyfitter_cfg.c **** 
 133:.\Generated_Source\PSoC5/cyfitter_cfg.c **** /* IOPINS0_0 Address: CYREG_PRT0_DM0 Size (bytes): 8 */
 134:.\Generated_Source\PSoC5/cyfitter_cfg.c **** #define BS_IOPINS0_0_VAL ((const uint8 CYFAR *)0x48000724u)
 135:.\Generated_Source\PSoC5/cyfitter_cfg.c **** 
 136:.\Generated_Source\PSoC5/cyfitter_cfg.c **** /* IOPINS0_7 Address: CYREG_PRT12_DM0 Size (bytes): 8 */
 137:.\Generated_Source\PSoC5/cyfitter_cfg.c **** #define BS_IOPINS0_7_VAL ((const uint8 CYFAR *)0x4800072Cu)
 138:.\Generated_Source\PSoC5/cyfitter_cfg.c **** 
 139:.\Generated_Source\PSoC5/cyfitter_cfg.c **** /* IOPINS0_8 Address: CYREG_PRT15_DR Size (bytes): 10 */
 140:.\Generated_Source\PSoC5/cyfitter_cfg.c **** #define BS_IOPINS0_8_VAL ((const uint8 CYFAR *)0x48000734u)
 141:.\Generated_Source\PSoC5/cyfitter_cfg.c **** 
 142:.\Generated_Source\PSoC5/cyfitter_cfg.c **** /* IOPINS0_1 Address: CYREG_PRT1_DM0 Size (bytes): 8 */
 143:.\Generated_Source\PSoC5/cyfitter_cfg.c **** #define BS_IOPINS0_1_VAL ((const uint8 CYFAR *)0x48000740u)
 144:.\Generated_Source\PSoC5/cyfitter_cfg.c **** 
 145:.\Generated_Source\PSoC5/cyfitter_cfg.c **** /* IOPINS0_2 Address: CYREG_PRT2_DM0 Size (bytes): 8 */
 146:.\Generated_Source\PSoC5/cyfitter_cfg.c **** #define BS_IOPINS0_2_VAL ((const uint8 CYFAR *)0x48000748u)
ARM GAS  C:\Users\Greg\AppData\Local\Temp\ccTcgJkH.s 			page 4


 147:.\Generated_Source\PSoC5/cyfitter_cfg.c **** 
 148:.\Generated_Source\PSoC5/cyfitter_cfg.c **** /* IOPINS0_3 Address: CYREG_PRT3_DM0 Size (bytes): 8 */
 149:.\Generated_Source\PSoC5/cyfitter_cfg.c **** #define BS_IOPINS0_3_VAL ((const uint8 CYFAR *)0x48000750u)
 150:.\Generated_Source\PSoC5/cyfitter_cfg.c **** 
 151:.\Generated_Source\PSoC5/cyfitter_cfg.c **** /* PHUB_CFGMEM1 Address: CYREG_PHUB_CFGMEM1_CFG0 Size (bytes): 4 */
 152:.\Generated_Source\PSoC5/cyfitter_cfg.c **** #define BS_PHUB_CFGMEM1_VAL ((const uint8 CYFAR *)0x48000758u)
 153:.\Generated_Source\PSoC5/cyfitter_cfg.c **** 
 154:.\Generated_Source\PSoC5/cyfitter_cfg.c **** 
 155:.\Generated_Source\PSoC5/cyfitter_cfg.c **** /*******************************************************************************
 156:.\Generated_Source\PSoC5/cyfitter_cfg.c **** * Function Name: cfg_write_bytes32
 157:.\Generated_Source\PSoC5/cyfitter_cfg.c **** ********************************************************************************
 158:.\Generated_Source\PSoC5/cyfitter_cfg.c **** * Summary:
 159:.\Generated_Source\PSoC5/cyfitter_cfg.c **** *  This function is used for setting up the chip configuration areas that
 160:.\Generated_Source\PSoC5/cyfitter_cfg.c **** *  contain relatively sparse data.
 161:.\Generated_Source\PSoC5/cyfitter_cfg.c **** *
 162:.\Generated_Source\PSoC5/cyfitter_cfg.c **** * Parameters:
 163:.\Generated_Source\PSoC5/cyfitter_cfg.c **** *   void
 164:.\Generated_Source\PSoC5/cyfitter_cfg.c **** *
 165:.\Generated_Source\PSoC5/cyfitter_cfg.c **** * Return:
 166:.\Generated_Source\PSoC5/cyfitter_cfg.c **** *   void
 167:.\Generated_Source\PSoC5/cyfitter_cfg.c **** *
 168:.\Generated_Source\PSoC5/cyfitter_cfg.c **** *******************************************************************************/
 169:.\Generated_Source\PSoC5/cyfitter_cfg.c **** static void cfg_write_bytes32(const uint32 addr_table[], const cy_cfg_addrvalue_t data_table[]);
 170:.\Generated_Source\PSoC5/cyfitter_cfg.c **** static void cfg_write_bytes32(const uint32 addr_table[], const cy_cfg_addrvalue_t data_table[])
 171:.\Generated_Source\PSoC5/cyfitter_cfg.c **** {
  26              		.loc 1 171 0
  27              		.cfi_startproc
  28              		@ args = 0, pretend = 0, frame = 0
  29              		@ frame_needed = 0, uses_anonymous_args = 0
  30              		@ link register save eliminated.
  31              	.LVL0:
  32 0000 F0B4     		push	{r4, r5, r6, r7}
  33              		.cfi_def_cfa_offset 16
  34              		.cfi_offset 4, -16
  35              		.cfi_offset 5, -12
  36              		.cfi_offset 6, -8
  37              		.cfi_offset 7, -4
  38              	.LVL1:
 172:.\Generated_Source\PSoC5/cyfitter_cfg.c **** 	/* For 32-bit little-endian architectures */
 173:.\Generated_Source\PSoC5/cyfitter_cfg.c **** 	uint32 i, j = 0u;
  39              		.loc 1 173 0
  40 0002 0022     		movs	r2, #0
 174:.\Generated_Source\PSoC5/cyfitter_cfg.c **** 	for (i = 0u; i < CY_CFG_BASE_ADDR_COUNT; i++)
  41              		.loc 1 174 0
  42 0004 1746     		mov	r7, r2
  43 0006 11E0     		b	.L2
  44              	.LVL2:
  45              	.L5:
  46              	.LBB2:
 175:.\Generated_Source\PSoC5/cyfitter_cfg.c **** 	{
 176:.\Generated_Source\PSoC5/cyfitter_cfg.c **** 		uint32 baseAddr = addr_table[i];
  47              		.loc 1 176 0
  48 0008 50F82760 		ldr	r6, [r0, r7, lsl #2]
  49              	.LVL3:
 177:.\Generated_Source\PSoC5/cyfitter_cfg.c **** 		uint8 count = (uint8)baseAddr;
  50              		.loc 1 177 0
  51 000c F3B2     		uxtb	r3, r6
ARM GAS  C:\Users\Greg\AppData\Local\Temp\ccTcgJkH.s 			page 5


  52              	.LVL4:
 178:.\Generated_Source\PSoC5/cyfitter_cfg.c **** 		baseAddr &= 0xFFFFFF00u;
  53              		.loc 1 178 0
  54 000e 26F0FF06 		bic	r6, r6, #255
  55              	.LVL5:
 179:.\Generated_Source\PSoC5/cyfitter_cfg.c **** 		while (count != 0u)
  56              		.loc 1 179 0
  57 0012 08E0     		b	.L3
  58              	.L4:
 180:.\Generated_Source\PSoC5/cyfitter_cfg.c **** 		{
 181:.\Generated_Source\PSoC5/cyfitter_cfg.c **** 			CY_SET_XTND_REG8((void CYFAR *)(baseAddr + data_table[j].offset), data_table[j].value);
  59              		.loc 1 181 0
  60 0014 01EB4205 		add	r5, r1, r2, lsl #1
  61 0018 11F81240 		ldrb	r4, [r1, r2, lsl #1]	@ zero_extendqisi2
  62 001c 6D78     		ldrb	r5, [r5, #1]	@ zero_extendqisi2
  63 001e A555     		strb	r5, [r4, r6]
 182:.\Generated_Source\PSoC5/cyfitter_cfg.c **** 			j++;
  64              		.loc 1 182 0
  65 0020 0132     		adds	r2, r2, #1
  66              	.LVL6:
 183:.\Generated_Source\PSoC5/cyfitter_cfg.c **** 			count--;
  67              		.loc 1 183 0
  68 0022 013B     		subs	r3, r3, #1
  69              	.LVL7:
  70 0024 DBB2     		uxtb	r3, r3
  71              	.LVL8:
  72              	.L3:
 179:.\Generated_Source\PSoC5/cyfitter_cfg.c **** 		{
  73              		.loc 1 179 0
  74 0026 002B     		cmp	r3, #0
  75 0028 F4D1     		bne	.L4
  76              	.LBE2:
 174:.\Generated_Source\PSoC5/cyfitter_cfg.c **** 	{
  77              		.loc 1 174 0 discriminator 2
  78 002a 0137     		adds	r7, r7, #1
  79              	.LVL9:
  80              	.L2:
 174:.\Generated_Source\PSoC5/cyfitter_cfg.c **** 	{
  81              		.loc 1 174 0 is_stmt 0 discriminator 1
  82 002c 242F     		cmp	r7, #36
  83 002e EBD9     		bls	.L5
 184:.\Generated_Source\PSoC5/cyfitter_cfg.c **** 		}
 185:.\Generated_Source\PSoC5/cyfitter_cfg.c **** 	}
 186:.\Generated_Source\PSoC5/cyfitter_cfg.c **** }
  84              		.loc 1 186 0 is_stmt 1
  85 0030 F0BC     		pop	{r4, r5, r6, r7}
  86              		.cfi_restore 7
  87              		.cfi_restore 6
  88              		.cfi_restore 5
  89              		.cfi_restore 4
  90              		.cfi_def_cfa_offset 0
  91              	.LVL10:
  92 0032 7047     		bx	lr
  93              		.cfi_endproc
  94              	.LFE3:
  95              		.size	cfg_write_bytes32, .-cfg_write_bytes32
  96              		.section	.text.ClockSetup,"ax",%progbits
ARM GAS  C:\Users\Greg\AppData\Local\Temp\ccTcgJkH.s 			page 6


  97              		.align	2
  98              		.thumb
  99              		.thumb_func
 100              		.type	ClockSetup, %function
 101              	ClockSetup:
 102              	.LFB4:
 187:.\Generated_Source\PSoC5/cyfitter_cfg.c **** 
 188:.\Generated_Source\PSoC5/cyfitter_cfg.c **** /*******************************************************************************
 189:.\Generated_Source\PSoC5/cyfitter_cfg.c **** * Function Name: ClockSetup
 190:.\Generated_Source\PSoC5/cyfitter_cfg.c **** ********************************************************************************
 191:.\Generated_Source\PSoC5/cyfitter_cfg.c **** *
 192:.\Generated_Source\PSoC5/cyfitter_cfg.c **** * Summary:
 193:.\Generated_Source\PSoC5/cyfitter_cfg.c **** *  Performs the initialization of all of the clocks in the device based on the
 194:.\Generated_Source\PSoC5/cyfitter_cfg.c **** *  settings in the Clock tab of the DWR.  This includes enabling the requested
 195:.\Generated_Source\PSoC5/cyfitter_cfg.c **** *  clocks and setting the necessary dividers to produce the desired frequency. 
 196:.\Generated_Source\PSoC5/cyfitter_cfg.c **** *
 197:.\Generated_Source\PSoC5/cyfitter_cfg.c **** * Parameters:
 198:.\Generated_Source\PSoC5/cyfitter_cfg.c **** *  void
 199:.\Generated_Source\PSoC5/cyfitter_cfg.c **** *
 200:.\Generated_Source\PSoC5/cyfitter_cfg.c **** * Return:
 201:.\Generated_Source\PSoC5/cyfitter_cfg.c **** *  void
 202:.\Generated_Source\PSoC5/cyfitter_cfg.c **** *
 203:.\Generated_Source\PSoC5/cyfitter_cfg.c **** *******************************************************************************/
 204:.\Generated_Source\PSoC5/cyfitter_cfg.c **** static void ClockSetup(void);
 205:.\Generated_Source\PSoC5/cyfitter_cfg.c **** static void ClockSetup(void)
 206:.\Generated_Source\PSoC5/cyfitter_cfg.c **** {
 103              		.loc 1 206 0
 104              		.cfi_startproc
 105              		@ args = 0, pretend = 0, frame = 0
 106              		@ frame_needed = 0, uses_anonymous_args = 0
 107              		@ link register save eliminated.
 207:.\Generated_Source\PSoC5/cyfitter_cfg.c **** 
 208:.\Generated_Source\PSoC5/cyfitter_cfg.c **** 
 209:.\Generated_Source\PSoC5/cyfitter_cfg.c **** 	/* Configure Digital Clocks based on settings from Clock DWR */
 210:.\Generated_Source\PSoC5/cyfitter_cfg.c **** 	CY_SET_XTND_REG16((void CYFAR *)(CYREG_CLKDIST_DCFG0_CFG0), 0x0012u);
 108              		.loc 1 210 0
 109 0000 1222     		movs	r2, #18
 110 0002 174B     		ldr	r3, .L8
 111 0004 1A80     		strh	r2, [r3]	@ movhi
 211:.\Generated_Source\PSoC5/cyfitter_cfg.c **** 	CY_SET_XTND_REG8((void CYFAR *)(CYREG_CLKDIST_DCFG0_CFG0 + 0x2u), 0x18u);
 112              		.loc 1 211 0
 113 0006 1823     		movs	r3, #24
 114 0008 164A     		ldr	r2, .L8+4
 115 000a 1370     		strb	r3, [r2]
 212:.\Generated_Source\PSoC5/cyfitter_cfg.c **** 	CY_SET_XTND_REG16((void CYFAR *)(CYREG_CLKDIST_DCFG1_CFG0), 0xFFFFu);
 116              		.loc 1 212 0
 117 000c 4FF6FF71 		movw	r1, #65535
 118 0010 0232     		adds	r2, r2, #2
 119 0012 1180     		strh	r1, [r2]	@ movhi
 213:.\Generated_Source\PSoC5/cyfitter_cfg.c **** 	CY_SET_XTND_REG8((void CYFAR *)(CYREG_CLKDIST_DCFG1_CFG0 + 0x2u), 0x18u);
 120              		.loc 1 213 0
 121 0014 0232     		adds	r2, r2, #2
 122 0016 1370     		strb	r3, [r2]
 214:.\Generated_Source\PSoC5/cyfitter_cfg.c **** 
 215:.\Generated_Source\PSoC5/cyfitter_cfg.c **** 	/* Configure ILO based on settings from Clock DWR */
 216:.\Generated_Source\PSoC5/cyfitter_cfg.c **** 	CY_SET_XTND_REG8((void CYFAR *)(CYREG_SLOWCLK_ILO_CR0), 0x06u);
 123              		.loc 1 216 0
ARM GAS  C:\Users\Greg\AppData\Local\Temp\ccTcgJkH.s 			page 7


 124 0018 0622     		movs	r2, #6
 125 001a 134B     		ldr	r3, .L8+8
 126 001c 1A70     		strb	r2, [r3]
 217:.\Generated_Source\PSoC5/cyfitter_cfg.c **** 
 218:.\Generated_Source\PSoC5/cyfitter_cfg.c **** 	/* Configure IMO based on settings from Clock DWR */
 219:.\Generated_Source\PSoC5/cyfitter_cfg.c **** 	CY_SET_XTND_REG8((void CYFAR *)(CYREG_FASTCLK_IMO_CR), 0x52u);
 127              		.loc 1 219 0
 128 001e 5222     		movs	r2, #82
 129 0020 A3F58073 		sub	r3, r3, #256
 130 0024 1A70     		strb	r2, [r3]
 220:.\Generated_Source\PSoC5/cyfitter_cfg.c **** 	CY_SET_XTND_REG8((void CYFAR *)(CYREG_IMO_TR1), (CY_GET_XTND_REG8((void CYFAR *)CYREG_FLSHID_CUST_
 131              		.loc 1 220 0
 132 0026 114B     		ldr	r3, .L8+12
 133 0028 1B78     		ldrb	r3, [r3]	@ zero_extendqisi2
 134 002a DBB2     		uxtb	r3, r3
 135 002c 104A     		ldr	r2, .L8+16
 136 002e 1370     		strb	r3, [r2]
 221:.\Generated_Source\PSoC5/cyfitter_cfg.c **** 
 222:.\Generated_Source\PSoC5/cyfitter_cfg.c **** 	/* Configure Bus/Master Clock based on settings from Clock DWR */
 223:.\Generated_Source\PSoC5/cyfitter_cfg.c **** 	CY_SET_XTND_REG16((void CYFAR *)(CYREG_CLKDIST_MSTR0), 0x0000u);
 137              		.loc 1 223 0
 138 0030 A2F29D62 		subw	r2, r2, #1693
 139 0034 0023     		movs	r3, #0
 140 0036 1380     		strh	r3, [r2]	@ movhi
 224:.\Generated_Source\PSoC5/cyfitter_cfg.c **** 	CY_SET_XTND_REG8((void CYFAR *)(CYREG_CLKDIST_MSTR0), 0x07u);
 141              		.loc 1 224 0
 142 0038 0721     		movs	r1, #7
 143 003a 1170     		strb	r1, [r2]
 225:.\Generated_Source\PSoC5/cyfitter_cfg.c **** 	CY_SET_XTND_REG8((void CYFAR *)(CYREG_CLKDIST_BCFG0), 0x00u);
 144              		.loc 1 225 0
 145 003c 0D49     		ldr	r1, .L8+20
 146 003e 0B70     		strb	r3, [r1]
 226:.\Generated_Source\PSoC5/cyfitter_cfg.c **** 	CY_SET_XTND_REG8((void CYFAR *)(CYREG_CLKDIST_BCFG2), 0x48u);
 147              		.loc 1 226 0
 148 0040 4820     		movs	r0, #72
 149 0042 0231     		adds	r1, r1, #2
 150 0044 0870     		strb	r0, [r1]
 227:.\Generated_Source\PSoC5/cyfitter_cfg.c **** 	CY_SET_XTND_REG8((void CYFAR *)(CYREG_CLKDIST_MSTR0), 0x00u);
 151              		.loc 1 227 0
 152 0046 1370     		strb	r3, [r2]
 228:.\Generated_Source\PSoC5/cyfitter_cfg.c **** 
 229:.\Generated_Source\PSoC5/cyfitter_cfg.c **** 	/* Configure USB Clock based on settings from Clock DWR */
 230:.\Generated_Source\PSoC5/cyfitter_cfg.c **** 	CY_SET_XTND_REG8((void CYFAR *)(CYREG_CLKDIST_UCFG), 0x00u);
 153              		.loc 1 230 0
 154 0048 0532     		adds	r2, r2, #5
 155 004a 1370     		strb	r3, [r2]
 231:.\Generated_Source\PSoC5/cyfitter_cfg.c **** 	CY_SET_XTND_REG8((void CYFAR *)(CYREG_CLKDIST_LD), 0x02u);
 156              		.loc 1 231 0
 157 004c 0222     		movs	r2, #2
 158 004e 0A4B     		ldr	r3, .L8+24
 159 0050 1A70     		strb	r2, [r3]
 232:.\Generated_Source\PSoC5/cyfitter_cfg.c **** 
 233:.\Generated_Source\PSoC5/cyfitter_cfg.c **** 	CY_SET_XTND_REG8((void CYFAR *)(CYREG_PM_ACT_CFG2), ((CY_GET_XTND_REG8((void CYFAR *)CYREG_PM_ACT_
 160              		.loc 1 233 0
 161 0052 0A4A     		ldr	r2, .L8+28
 162 0054 1378     		ldrb	r3, [r2]	@ zero_extendqisi2
 163 0056 43F00303 		orr	r3, r3, #3
ARM GAS  C:\Users\Greg\AppData\Local\Temp\ccTcgJkH.s 			page 8


 164 005a 1370     		strb	r3, [r2]
 165 005c 7047     		bx	lr
 166              	.L9:
 167 005e 00BF     		.align	2
 168              	.L8:
 169 0060 80400040 		.word	1073758336
 170 0064 82400040 		.word	1073758338
 171 0068 00430040 		.word	1073758976
 172 006c 0F010049 		.word	1224737039
 173 0070 A1460040 		.word	1073759905
 174 0074 06400040 		.word	1073758214
 175 0078 01400040 		.word	1073758209
 176 007c A2430040 		.word	1073759138
 177              		.cfi_endproc
 178              	.LFE4:
 179              		.size	ClockSetup, .-ClockSetup
 180              		.section	.text.AnalogSetDefault,"ax",%progbits
 181              		.align	2
 182              		.thumb
 183              		.thumb_func
 184              		.type	AnalogSetDefault, %function
 185              	AnalogSetDefault:
 186              	.LFB5:
 234:.\Generated_Source\PSoC5/cyfitter_cfg.c **** }
 235:.\Generated_Source\PSoC5/cyfitter_cfg.c **** 
 236:.\Generated_Source\PSoC5/cyfitter_cfg.c **** 
 237:.\Generated_Source\PSoC5/cyfitter_cfg.c **** /* Analog API Functions */
 238:.\Generated_Source\PSoC5/cyfitter_cfg.c **** 
 239:.\Generated_Source\PSoC5/cyfitter_cfg.c **** 
 240:.\Generated_Source\PSoC5/cyfitter_cfg.c **** /*******************************************************************************
 241:.\Generated_Source\PSoC5/cyfitter_cfg.c **** * Function Name: AnalogSetDefault
 242:.\Generated_Source\PSoC5/cyfitter_cfg.c **** ********************************************************************************
 243:.\Generated_Source\PSoC5/cyfitter_cfg.c **** *
 244:.\Generated_Source\PSoC5/cyfitter_cfg.c **** * Summary:
 245:.\Generated_Source\PSoC5/cyfitter_cfg.c **** *  Sets up the analog portions of the chip to default values based on chip
 246:.\Generated_Source\PSoC5/cyfitter_cfg.c **** *  configuration options from the project.
 247:.\Generated_Source\PSoC5/cyfitter_cfg.c **** *
 248:.\Generated_Source\PSoC5/cyfitter_cfg.c **** * Parameters:
 249:.\Generated_Source\PSoC5/cyfitter_cfg.c **** *  void
 250:.\Generated_Source\PSoC5/cyfitter_cfg.c **** *
 251:.\Generated_Source\PSoC5/cyfitter_cfg.c **** * Return:
 252:.\Generated_Source\PSoC5/cyfitter_cfg.c **** *  void
 253:.\Generated_Source\PSoC5/cyfitter_cfg.c **** *
 254:.\Generated_Source\PSoC5/cyfitter_cfg.c **** *******************************************************************************/
 255:.\Generated_Source\PSoC5/cyfitter_cfg.c **** static void AnalogSetDefault(void);
 256:.\Generated_Source\PSoC5/cyfitter_cfg.c **** static void AnalogSetDefault(void)
 257:.\Generated_Source\PSoC5/cyfitter_cfg.c **** {
 187              		.loc 1 257 0
 188              		.cfi_startproc
 189              		@ args = 0, pretend = 0, frame = 0
 190              		@ frame_needed = 0, uses_anonymous_args = 0
 191              		@ link register save eliminated.
 192 0000 70B4     		push	{r4, r5, r6}
 193              		.cfi_def_cfa_offset 12
 194              		.cfi_offset 4, -12
 195              		.cfi_offset 5, -8
 196              		.cfi_offset 6, -4
ARM GAS  C:\Users\Greg\AppData\Local\Temp\ccTcgJkH.s 			page 9


 258:.\Generated_Source\PSoC5/cyfitter_cfg.c **** 	uint8 bg_xover_inl_trim = CY_GET_XTND_REG8((void CYFAR *)(CYREG_FLSHID_MFG_CFG_BG_XOVER_INL_TRIM +
 197              		.loc 1 258 0
 198 0002 164B     		ldr	r3, .L12
 199 0004 1B78     		ldrb	r3, [r3]	@ zero_extendqisi2
 200 0006 DBB2     		uxtb	r3, r3
 201              	.LVL11:
 259:.\Generated_Source\PSoC5/cyfitter_cfg.c **** 	uint8 cr4 = CY_GET_XTND_REG8((void CYFAR *)(CYREG_RESET_CR4));
 202              		.loc 1 259 0
 203 0008 1548     		ldr	r0, .L12+4
 204 000a 0278     		ldrb	r2, [r0]	@ zero_extendqisi2
 205 000c D2B2     		uxtb	r2, r2
 206              	.LVL12:
 260:.\Generated_Source\PSoC5/cyfitter_cfg.c **** 	uint8 cr5 = CY_GET_XTND_REG8((void CYFAR *)(CYREG_RESET_CR5));
 207              		.loc 1 260 0
 208 000e 154C     		ldr	r4, .L12+8
 209 0010 2178     		ldrb	r1, [r4]	@ zero_extendqisi2
 210 0012 C9B2     		uxtb	r1, r1
 211              	.LVL13:
 261:.\Generated_Source\PSoC5/cyfitter_cfg.c **** 	CY_SET_XTND_REG8((void CYFAR *)(CYREG_BG_DFT0), (bg_xover_inl_trim & 0x07u));
 212              		.loc 1 261 0
 213 0014 03F00706 		and	r6, r3, #7
 214 0018 134D     		ldr	r5, .L12+12
 215 001a 2E70     		strb	r6, [r5]
 262:.\Generated_Source\PSoC5/cyfitter_cfg.c **** 	CY_SET_XTND_REG8((void CYFAR *)(CYREG_BG_DFT1), ((bg_xover_inl_trim >> 4) & 0x0Fu));
 216              		.loc 1 262 0
 217 001c 1B09     		lsrs	r3, r3, #4
 218              	.LVL14:
 219 001e 0135     		adds	r5, r5, #1
 220 0020 2B70     		strb	r3, [r5]
 263:.\Generated_Source\PSoC5/cyfitter_cfg.c **** 	/* Disable PRES while setting up SAR voltage reference */
 264:.\Generated_Source\PSoC5/cyfitter_cfg.c **** 	CY_SET_XTND_REG8((void CYFAR *)(CYREG_RESET_CR4), (cr4 | 0x03u));
 221              		.loc 1 264 0
 222 0022 42F00303 		orr	r3, r2, #3
 223 0026 0370     		strb	r3, [r0]
 265:.\Generated_Source\PSoC5/cyfitter_cfg.c **** 	CY_SET_XTND_REG8((void CYFAR *)(CYREG_RESET_CR5), (cr5 | 0x03u));
 224              		.loc 1 265 0
 225 0028 41F00303 		orr	r3, r1, #3
 226 002c 2370     		strb	r3, [r4]
 266:.\Generated_Source\PSoC5/cyfitter_cfg.c **** 	CY_SET_XTND_REG8((void CYFAR *)CYREG_PRT0_AG, 0xFFu);
 227              		.loc 1 266 0
 228 002e FF25     		movs	r5, #255
 229 0030 0E4B     		ldr	r3, .L12+16
 230 0032 1D70     		strb	r5, [r3]
 267:.\Generated_Source\PSoC5/cyfitter_cfg.c **** 	CY_SET_XTND_REG8((void CYFAR *)CYREG_SAR0_CSR1, 0x40u);
 231              		.loc 1 267 0
 232 0034 4023     		movs	r3, #64
 233 0036 0E4D     		ldr	r5, .L12+20
 234 0038 2B70     		strb	r3, [r5]
 268:.\Generated_Source\PSoC5/cyfitter_cfg.c **** 	CY_SET_XTND_REG8((void CYFAR *)CYREG_SAR0_CSR3, 0x40u);
 235              		.loc 1 268 0
 236 003a 0235     		adds	r5, r5, #2
 237 003c 2B70     		strb	r3, [r5]
 269:.\Generated_Source\PSoC5/cyfitter_cfg.c **** 	CY_SET_XTND_REG8((void CYFAR *)CYREG_SAR0_SW0, 0xF0u);
 238              		.loc 1 269 0
 239 003e F025     		movs	r5, #240
 240 0040 0C4B     		ldr	r3, .L12+24
 241 0042 1D70     		strb	r5, [r3]
ARM GAS  C:\Users\Greg\AppData\Local\Temp\ccTcgJkH.s 			page 10


 270:.\Generated_Source\PSoC5/cyfitter_cfg.c **** 	CY_SET_XTND_REG8((void CYFAR *)CYREG_SAR0_SW3, 0x20u);
 242              		.loc 1 270 0
 243 0044 2025     		movs	r5, #32
 244 0046 0333     		adds	r3, r3, #3
 245 0048 1D70     		strb	r5, [r3]
 271:.\Generated_Source\PSoC5/cyfitter_cfg.c **** 	CY_SET_XTND_REG8((void CYFAR *)(CYREG_RESET_CR5), (cr5));
 246              		.loc 1 271 0
 247 004a 2170     		strb	r1, [r4]
 272:.\Generated_Source\PSoC5/cyfitter_cfg.c **** 	CY_SET_XTND_REG8((void CYFAR *)(CYREG_RESET_CR4), (cr4));
 248              		.loc 1 272 0
 249 004c 0270     		strb	r2, [r0]
 273:.\Generated_Source\PSoC5/cyfitter_cfg.c **** 	CY_SET_XTND_REG8((void CYFAR *)CYREG_PUMP_CR0, 0x44u);
 250              		.loc 1 273 0
 251 004e 4422     		movs	r2, #68
 252              	.LVL15:
 253 0050 A3F2AD23 		subw	r3, r3, #685
 254 0054 1A70     		strb	r2, [r3]
 255              	.LVL16:
 274:.\Generated_Source\PSoC5/cyfitter_cfg.c **** }
 256              		.loc 1 274 0
 257 0056 70BC     		pop	{r4, r5, r6}
 258              		.cfi_restore 6
 259              		.cfi_restore 5
 260              		.cfi_restore 4
 261              		.cfi_def_cfa_offset 0
 262 0058 7047     		bx	lr
 263              	.L13:
 264 005a 00BF     		.align	2
 265              	.L12:
 266 005c CF010049 		.word	1224737231
 267 0060 F8460040 		.word	1073759992
 268 0064 F9460040 		.word	1073759993
 269 0068 6E580040 		.word	1073764462
 270 006c 0D510040 		.word	1073762573
 271 0070 01590040 		.word	1073764609
 272 0074 205B0040 		.word	1073765152
 273              		.cfi_endproc
 274              	.LFE5:
 275              		.size	AnalogSetDefault, .-AnalogSetDefault
 276              		.section	.text.CYMEMZERO,"ax",%progbits
 277              		.align	2
 278              		.thumb
 279              		.thumb_func
 280              		.type	CYMEMZERO, %function
 281              	CYMEMZERO:
 282              	.LFB0:
  59:.\Generated_Source\PSoC5/cyfitter_cfg.c **** 	(void)memset(s, 0, n);
 283              		.loc 1 59 0
 284              		.cfi_startproc
 285              		@ args = 0, pretend = 0, frame = 0
 286              		@ frame_needed = 0, uses_anonymous_args = 0
 287              	.LVL17:
 288 0000 08B5     		push	{r3, lr}
 289              		.cfi_def_cfa_offset 8
 290              		.cfi_offset 3, -8
 291              		.cfi_offset 14, -4
 292 0002 0A46     		mov	r2, r1
ARM GAS  C:\Users\Greg\AppData\Local\Temp\ccTcgJkH.s 			page 11


  60:.\Generated_Source\PSoC5/cyfitter_cfg.c **** }
 293              		.loc 1 60 0
 294 0004 0021     		movs	r1, #0
 295              	.LVL18:
 296 0006 FFF7FEFF 		bl	memset
 297              	.LVL19:
 298 000a 08BD     		pop	{r3, pc}
 299              		.cfi_endproc
 300              	.LFE0:
 301              		.size	CYMEMZERO, .-CYMEMZERO
 302              		.section	.text.CYCONFIGCPY,"ax",%progbits
 303              		.align	2
 304              		.thumb
 305              		.thumb_func
 306              		.type	CYCONFIGCPY, %function
 307              	CYCONFIGCPY:
 308              	.LFB1:
  66:.\Generated_Source\PSoC5/cyfitter_cfg.c **** 	(void)memcpy(dest, src, n);
 309              		.loc 1 66 0
 310              		.cfi_startproc
 311              		@ args = 0, pretend = 0, frame = 0
 312              		@ frame_needed = 0, uses_anonymous_args = 0
 313              	.LVL20:
 314 0000 08B5     		push	{r3, lr}
 315              		.cfi_def_cfa_offset 8
 316              		.cfi_offset 3, -8
 317              		.cfi_offset 14, -4
  67:.\Generated_Source\PSoC5/cyfitter_cfg.c **** }
 318              		.loc 1 67 0
 319 0002 FFF7FEFF 		bl	memcpy
 320              	.LVL21:
 321 0006 08BD     		pop	{r3, pc}
 322              		.cfi_endproc
 323              	.LFE1:
 324              		.size	CYCONFIGCPY, .-CYCONFIGCPY
 325              		.section	.text.SetAnalogRoutingPumps,"ax",%progbits
 326              		.align	2
 327              		.global	SetAnalogRoutingPumps
 328              		.thumb
 329              		.thumb_func
 330              		.type	SetAnalogRoutingPumps, %function
 331              	SetAnalogRoutingPumps:
 332              	.LFB6:
 275:.\Generated_Source\PSoC5/cyfitter_cfg.c **** 
 276:.\Generated_Source\PSoC5/cyfitter_cfg.c **** 
 277:.\Generated_Source\PSoC5/cyfitter_cfg.c **** /*******************************************************************************
 278:.\Generated_Source\PSoC5/cyfitter_cfg.c **** * Function Name: SetAnalogRoutingPumps
 279:.\Generated_Source\PSoC5/cyfitter_cfg.c **** ********************************************************************************
 280:.\Generated_Source\PSoC5/cyfitter_cfg.c **** *
 281:.\Generated_Source\PSoC5/cyfitter_cfg.c **** * Summary:
 282:.\Generated_Source\PSoC5/cyfitter_cfg.c **** * Enables or disables the analog pumps feeding analog routing switches.
 283:.\Generated_Source\PSoC5/cyfitter_cfg.c **** * Intended to be called at startup, based on the Vdda system configuration;
 284:.\Generated_Source\PSoC5/cyfitter_cfg.c **** * may be called during operation when the user informs us that the Vdda voltage
 285:.\Generated_Source\PSoC5/cyfitter_cfg.c **** * crossed the pump threshold.
 286:.\Generated_Source\PSoC5/cyfitter_cfg.c **** *
 287:.\Generated_Source\PSoC5/cyfitter_cfg.c **** * Parameters:
 288:.\Generated_Source\PSoC5/cyfitter_cfg.c **** *  enabled - 1 to enable the pumps, 0 to disable the pumps
ARM GAS  C:\Users\Greg\AppData\Local\Temp\ccTcgJkH.s 			page 12


 289:.\Generated_Source\PSoC5/cyfitter_cfg.c **** *
 290:.\Generated_Source\PSoC5/cyfitter_cfg.c **** * Return:
 291:.\Generated_Source\PSoC5/cyfitter_cfg.c **** *  void
 292:.\Generated_Source\PSoC5/cyfitter_cfg.c **** *
 293:.\Generated_Source\PSoC5/cyfitter_cfg.c **** *******************************************************************************/
 294:.\Generated_Source\PSoC5/cyfitter_cfg.c **** void SetAnalogRoutingPumps(uint8 enabled)
 295:.\Generated_Source\PSoC5/cyfitter_cfg.c **** {
 333              		.loc 1 295 0
 334              		.cfi_startproc
 335              		@ args = 0, pretend = 0, frame = 0
 336              		@ frame_needed = 0, uses_anonymous_args = 0
 337              		@ link register save eliminated.
 338              	.LVL22:
 296:.\Generated_Source\PSoC5/cyfitter_cfg.c **** 	uint8 regValue = CY_GET_XTND_REG8((void CYFAR *)CYREG_PUMP_CR0);
 339              		.loc 1 296 0
 340 0000 054B     		ldr	r3, .L21
 341 0002 1B78     		ldrb	r3, [r3]	@ zero_extendqisi2
 342 0004 DBB2     		uxtb	r3, r3
 343              	.LVL23:
 297:.\Generated_Source\PSoC5/cyfitter_cfg.c **** 	if (enabled != 0u)
 344              		.loc 1 297 0
 345 0006 10B1     		cbz	r0, .L19
 298:.\Generated_Source\PSoC5/cyfitter_cfg.c **** 	{
 299:.\Generated_Source\PSoC5/cyfitter_cfg.c **** 		regValue |= 0x22u;
 346              		.loc 1 299 0
 347 0008 43F02203 		orr	r3, r3, #34
 348              	.LVL24:
 349 000c 01E0     		b	.L20
 350              	.L19:
 300:.\Generated_Source\PSoC5/cyfitter_cfg.c **** 	}
 301:.\Generated_Source\PSoC5/cyfitter_cfg.c **** 	else
 302:.\Generated_Source\PSoC5/cyfitter_cfg.c **** 	{
 303:.\Generated_Source\PSoC5/cyfitter_cfg.c **** 		regValue &= (uint8)~0x22u;
 351              		.loc 1 303 0
 352 000e 03F0DD03 		and	r3, r3, #221
 353              	.LVL25:
 354              	.L20:
 304:.\Generated_Source\PSoC5/cyfitter_cfg.c **** 	}
 305:.\Generated_Source\PSoC5/cyfitter_cfg.c **** 	CY_SET_XTND_REG8((void CYFAR *)CYREG_PUMP_CR0, regValue);
 355              		.loc 1 305 0
 356 0012 014A     		ldr	r2, .L21
 357 0014 1370     		strb	r3, [r2]
 358 0016 7047     		bx	lr
 359              	.L22:
 360              		.align	2
 361              	.L21:
 362 0018 76580040 		.word	1073764470
 363              		.cfi_endproc
 364              	.LFE6:
 365              		.size	SetAnalogRoutingPumps, .-SetAnalogRoutingPumps
 366              		.section	.text.cyfitter_cfg,"ax",%progbits
 367              		.align	2
 368              		.global	cyfitter_cfg
 369              		.thumb
 370              		.thumb_func
 371              		.type	cyfitter_cfg, %function
 372              	cyfitter_cfg:
ARM GAS  C:\Users\Greg\AppData\Local\Temp\ccTcgJkH.s 			page 13


 373              	.LFB7:
 306:.\Generated_Source\PSoC5/cyfitter_cfg.c **** }
 307:.\Generated_Source\PSoC5/cyfitter_cfg.c **** 
 308:.\Generated_Source\PSoC5/cyfitter_cfg.c **** #define CY_AMUX_UNUSED CYREG_BOOST_SR
 309:.\Generated_Source\PSoC5/cyfitter_cfg.c **** 
 310:.\Generated_Source\PSoC5/cyfitter_cfg.c **** 
 311:.\Generated_Source\PSoC5/cyfitter_cfg.c **** /*******************************************************************************
 312:.\Generated_Source\PSoC5/cyfitter_cfg.c **** * Function Name: cyfitter_cfg
 313:.\Generated_Source\PSoC5/cyfitter_cfg.c **** ********************************************************************************
 314:.\Generated_Source\PSoC5/cyfitter_cfg.c **** * Summary:
 315:.\Generated_Source\PSoC5/cyfitter_cfg.c **** *  This function is called by the start-up code for the selected device. It
 316:.\Generated_Source\PSoC5/cyfitter_cfg.c **** *  performs all of the necessary device configuration based on the design
 317:.\Generated_Source\PSoC5/cyfitter_cfg.c **** *  settings.  This includes settings from the Design Wide Resources (DWR) such
 318:.\Generated_Source\PSoC5/cyfitter_cfg.c **** *  as Clocks and Pins as well as any component configuration that is necessary.
 319:.\Generated_Source\PSoC5/cyfitter_cfg.c **** *
 320:.\Generated_Source\PSoC5/cyfitter_cfg.c **** * Parameters:  
 321:.\Generated_Source\PSoC5/cyfitter_cfg.c **** *   void
 322:.\Generated_Source\PSoC5/cyfitter_cfg.c **** *
 323:.\Generated_Source\PSoC5/cyfitter_cfg.c **** * Return:
 324:.\Generated_Source\PSoC5/cyfitter_cfg.c **** *   void
 325:.\Generated_Source\PSoC5/cyfitter_cfg.c **** *
 326:.\Generated_Source\PSoC5/cyfitter_cfg.c **** *******************************************************************************/
 327:.\Generated_Source\PSoC5/cyfitter_cfg.c **** 
 328:.\Generated_Source\PSoC5/cyfitter_cfg.c **** void cyfitter_cfg(void)
 329:.\Generated_Source\PSoC5/cyfitter_cfg.c **** {
 374              		.loc 1 329 0
 375              		.cfi_startproc
 376              		@ args = 0, pretend = 0, frame = 0
 377              		@ frame_needed = 0, uses_anonymous_args = 0
 378 0000 38B5     		push	{r3, r4, r5, lr}
 379              		.cfi_def_cfa_offset 16
 380              		.cfi_offset 3, -16
 381              		.cfi_offset 4, -12
 382              		.cfi_offset 5, -8
 383              		.cfi_offset 14, -4
 330:.\Generated_Source\PSoC5/cyfitter_cfg.c **** #ifdef CYGlobalIntDisable
 331:.\Generated_Source\PSoC5/cyfitter_cfg.c **** 	/* Disable interrupts by default. Let user enable if/when they want. */
 332:.\Generated_Source\PSoC5/cyfitter_cfg.c **** 	CYGlobalIntDisable
 384              		.loc 1 332 0
 385              	@ 332 ".\Generated_Source\PSoC5\cyfitter_cfg.c" 1
 386 0002 72B6     		CPSID   i
 387              	@ 0 "" 2
 388              	.LVL26:
 389              		.thumb
 390              	.LBB3:
 333:.\Generated_Source\PSoC5/cyfitter_cfg.c **** #endif
 334:.\Generated_Source\PSoC5/cyfitter_cfg.c **** 
 335:.\Generated_Source\PSoC5/cyfitter_cfg.c **** 	{
 336:.\Generated_Source\PSoC5/cyfitter_cfg.c **** 
 337:.\Generated_Source\PSoC5/cyfitter_cfg.c **** 		CYPACKED typedef struct {
 338:.\Generated_Source\PSoC5/cyfitter_cfg.c **** 			void CYFAR *address;
 339:.\Generated_Source\PSoC5/cyfitter_cfg.c **** 			uint16 size;
 340:.\Generated_Source\PSoC5/cyfitter_cfg.c **** 		} CYPACKED_ATTR cfg_memset_t;
 341:.\Generated_Source\PSoC5/cyfitter_cfg.c **** 
 342:.\Generated_Source\PSoC5/cyfitter_cfg.c **** 		static const cfg_memset_t CYCODE cfg_memset_list [] = {
 343:.\Generated_Source\PSoC5/cyfitter_cfg.c **** 			/* address, size */
 344:.\Generated_Source\PSoC5/cyfitter_cfg.c **** 			{(void CYFAR *)(CYREG_PRT4_DR), 48u},
ARM GAS  C:\Users\Greg\AppData\Local\Temp\ccTcgJkH.s 			page 14


 345:.\Generated_Source\PSoC5/cyfitter_cfg.c **** 			{(void CYFAR *)(CYDEV_UCFG_B0_P0_U0_BASE), 4096u},
 346:.\Generated_Source\PSoC5/cyfitter_cfg.c **** 			{(void CYFAR *)(CYDEV_UCFG_B1_P2_U0_BASE), 2048u},
 347:.\Generated_Source\PSoC5/cyfitter_cfg.c **** 			{(void CYFAR *)(CYDEV_UCFG_DSI0_BASE), 2560u},
 348:.\Generated_Source\PSoC5/cyfitter_cfg.c **** 			{(void CYFAR *)(CYDEV_UCFG_DSI12_BASE), 512u},
 349:.\Generated_Source\PSoC5/cyfitter_cfg.c **** 			{(void CYFAR *)(CYREG_BCTL0_MDCLK_EN), 32u},
 350:.\Generated_Source\PSoC5/cyfitter_cfg.c **** 		};
 351:.\Generated_Source\PSoC5/cyfitter_cfg.c **** 
 352:.\Generated_Source\PSoC5/cyfitter_cfg.c **** 		uint8 CYDATA i;
 353:.\Generated_Source\PSoC5/cyfitter_cfg.c **** 
 354:.\Generated_Source\PSoC5/cyfitter_cfg.c **** 		/* Zero out critical memory blocks before beginning configuration */
 355:.\Generated_Source\PSoC5/cyfitter_cfg.c **** 		for (i = 0u; i < (sizeof(cfg_memset_list)/sizeof(cfg_memset_list[0])); i++)
 391              		.loc 1 355 0
 392 0004 0024     		movs	r4, #0
 393 0006 0CE0     		b	.L24
 394              	.LVL27:
 395              	.L25:
 396              	.LBB4:
 356:.\Generated_Source\PSoC5/cyfitter_cfg.c **** 		{
 357:.\Generated_Source\PSoC5/cyfitter_cfg.c **** 			const cfg_memset_t CYCODE * CYDATA ms = &cfg_memset_list[i];
 358:.\Generated_Source\PSoC5/cyfitter_cfg.c **** 			CYMEMZERO(ms->address, (size_t)(uint32)(ms->size));
 397              		.loc 1 358 0 discriminator 3
 398 0008 3249     		ldr	r1, .L27
 399 000a 6300     		lsls	r3, r4, #1
 400 000c 1A19     		adds	r2, r3, r4
 401 000e 5200     		lsls	r2, r2, #1
 402 0010 0A44     		add	r2, r2, r1
 403 0012 2344     		add	r3, r3, r4
 404 0014 5B00     		lsls	r3, r3, #1
 405 0016 C858     		ldr	r0, [r1, r3]	@ unaligned
 406 0018 9188     		ldrh	r1, [r2, #4]
 407 001a FFF7FEFF 		bl	CYMEMZERO
 408              	.LVL28:
 409              	.LBE4:
 355:.\Generated_Source\PSoC5/cyfitter_cfg.c **** 		{
 410              		.loc 1 355 0 discriminator 3
 411 001e 0134     		adds	r4, r4, #1
 412              	.LVL29:
 413 0020 E4B2     		uxtb	r4, r4
 414              	.LVL30:
 415              	.L24:
 355:.\Generated_Source\PSoC5/cyfitter_cfg.c **** 		{
 416              		.loc 1 355 0 is_stmt 0 discriminator 1
 417 0022 052C     		cmp	r4, #5
 418 0024 F0D9     		bls	.L25
 359:.\Generated_Source\PSoC5/cyfitter_cfg.c **** 		}
 360:.\Generated_Source\PSoC5/cyfitter_cfg.c **** 
 361:.\Generated_Source\PSoC5/cyfitter_cfg.c **** 		cfg_write_bytes32(cy_cfg_addr_table, cy_cfg_data_table);
 419              		.loc 1 361 0 is_stmt 1
 420 0026 4FF09040 		mov	r0, #1207959552
 421 002a 2B49     		ldr	r1, .L27+4
 422 002c FFF7FEFF 		bl	cfg_write_bytes32
 423              	.LVL31:
 362:.\Generated_Source\PSoC5/cyfitter_cfg.c **** 
 363:.\Generated_Source\PSoC5/cyfitter_cfg.c **** 		/* Perform normal device configuration. Order is not critical for these items. */
 364:.\Generated_Source\PSoC5/cyfitter_cfg.c **** 		CYMEMZERO((void CYFAR *)(CYREG_PHUB_CFGMEM0_CFG0), 4u);
 424              		.loc 1 364 0
 425 0030 2A48     		ldr	r0, .L27+8
ARM GAS  C:\Users\Greg\AppData\Local\Temp\ccTcgJkH.s 			page 15


 426 0032 0421     		movs	r1, #4
 427 0034 FFF7FEFF 		bl	CYMEMZERO
 428              	.LVL32:
 365:.\Generated_Source\PSoC5/cyfitter_cfg.c **** 		CYCONFIGCPY((void CYFAR *)(CYREG_PHUB_CFGMEM1_CFG0), (const void CYFAR *)(BS_PHUB_CFGMEM1_VAL), 4
 429              		.loc 1 365 0
 430 0038 2948     		ldr	r0, .L27+12
 431 003a 2A49     		ldr	r1, .L27+16
 432 003c 0422     		movs	r2, #4
 433 003e FFF7FEFF 		bl	CYCONFIGCPY
 434              	.LVL33:
 366:.\Generated_Source\PSoC5/cyfitter_cfg.c **** 
 367:.\Generated_Source\PSoC5/cyfitter_cfg.c **** 		/* Enable digital routing */
 368:.\Generated_Source\PSoC5/cyfitter_cfg.c **** 		CY_SET_XTND_REG8((void CYFAR *)CYREG_BCTL0_BANK_CTL, CY_GET_XTND_REG8((void CYFAR *)CYREG_BCTL0_B
 435              		.loc 1 368 0
 436 0042 294A     		ldr	r2, .L27+20
 437 0044 1378     		ldrb	r3, [r2]	@ zero_extendqisi2
 438 0046 43F00203 		orr	r3, r3, #2
 439 004a 1370     		strb	r3, [r2]
 369:.\Generated_Source\PSoC5/cyfitter_cfg.c **** 		CY_SET_XTND_REG8((void CYFAR *)CYREG_BCTL1_BANK_CTL, CY_GET_XTND_REG8((void CYFAR *)CYREG_BCTL1_B
 440              		.loc 1 369 0
 441 004c 1032     		adds	r2, r2, #16
 442 004e 1378     		ldrb	r3, [r2]	@ zero_extendqisi2
 443 0050 43F00203 		orr	r3, r3, #2
 444 0054 1370     		strb	r3, [r2]
 370:.\Generated_Source\PSoC5/cyfitter_cfg.c **** 
 371:.\Generated_Source\PSoC5/cyfitter_cfg.c **** 		/* Enable UDB array */
 372:.\Generated_Source\PSoC5/cyfitter_cfg.c **** 		CY_SET_XTND_REG8((void CYFAR *)CYREG_PM_ACT_CFG0, CY_GET_XTND_REG8((void CYFAR *)CYREG_PM_ACT_CFG
 445              		.loc 1 372 0
 446 0056 254C     		ldr	r4, .L27+24
 447              	.LVL34:
 448 0058 2378     		ldrb	r3, [r4]	@ zero_extendqisi2
 449 005a 43F04003 		orr	r3, r3, #64
 450 005e 2370     		strb	r3, [r4]
 373:.\Generated_Source\PSoC5/cyfitter_cfg.c **** 		CY_SET_XTND_REG8((void CYFAR *)CYREG_PM_AVAIL_CR2, CY_GET_XTND_REG8((void CYFAR *)CYREG_PM_AVAIL_
 451              		.loc 1 373 0
 452 0060 A2F58632 		sub	r2, r2, #68608
 453 0064 513A     		subs	r2, r2, #81
 454 0066 1378     		ldrb	r3, [r2]	@ zero_extendqisi2
 455 0068 43F01003 		orr	r3, r3, #16
 456 006c 1370     		strb	r3, [r2]
 457              	.LBE3:
 374:.\Generated_Source\PSoC5/cyfitter_cfg.c **** 	}
 375:.\Generated_Source\PSoC5/cyfitter_cfg.c **** 
 376:.\Generated_Source\PSoC5/cyfitter_cfg.c **** 
 377:.\Generated_Source\PSoC5/cyfitter_cfg.c **** 	/* Perform second pass device configuration. These items must be configured in specific order afte
 378:.\Generated_Source\PSoC5/cyfitter_cfg.c **** 	CYCONFIGCPY((void CYFAR *)(CYREG_PRT0_DM0), (const void CYFAR *)(BS_IOPINS0_0_VAL), 8u);
 458              		.loc 1 378 0
 459 006e 2048     		ldr	r0, .L27+28
 460 0070 2049     		ldr	r1, .L27+32
 461 0072 0822     		movs	r2, #8
 462 0074 FFF7FEFF 		bl	CYCONFIGCPY
 463              	.LVL35:
 379:.\Generated_Source\PSoC5/cyfitter_cfg.c **** 	CYCONFIGCPY((void CYFAR *)(CYREG_PRT12_DM0), (const void CYFAR *)(BS_IOPINS0_7_VAL), 8u);
 464              		.loc 1 379 0
 465 0078 1F48     		ldr	r0, .L27+36
 466 007a 2049     		ldr	r1, .L27+40
 467 007c 0822     		movs	r2, #8
ARM GAS  C:\Users\Greg\AppData\Local\Temp\ccTcgJkH.s 			page 16


 468 007e FFF7FEFF 		bl	CYCONFIGCPY
 469              	.LVL36:
 380:.\Generated_Source\PSoC5/cyfitter_cfg.c **** 	CYCONFIGCPY((void CYFAR *)(CYREG_PRT15_DR), (const void CYFAR *)(BS_IOPINS0_8_VAL), 10u);
 470              		.loc 1 380 0
 471 0082 1F48     		ldr	r0, .L27+44
 472 0084 1F49     		ldr	r1, .L27+48
 473 0086 0A22     		movs	r2, #10
 474 0088 FFF7FEFF 		bl	CYCONFIGCPY
 475              	.LVL37:
 381:.\Generated_Source\PSoC5/cyfitter_cfg.c **** 	CYCONFIGCPY((void CYFAR *)(CYREG_PRT1_DM0), (const void CYFAR *)(BS_IOPINS0_1_VAL), 8u);
 476              		.loc 1 381 0
 477 008c 1E48     		ldr	r0, .L27+52
 478 008e 1F49     		ldr	r1, .L27+56
 479 0090 0822     		movs	r2, #8
 480 0092 FFF7FEFF 		bl	CYCONFIGCPY
 481              	.LVL38:
 382:.\Generated_Source\PSoC5/cyfitter_cfg.c **** 	CYCONFIGCPY((void CYFAR *)(CYREG_PRT2_DM0), (const void CYFAR *)(BS_IOPINS0_2_VAL), 8u);
 482              		.loc 1 382 0
 483 0096 1E48     		ldr	r0, .L27+60
 484 0098 1E49     		ldr	r1, .L27+64
 485 009a 0822     		movs	r2, #8
 486 009c FFF7FEFF 		bl	CYCONFIGCPY
 487              	.LVL39:
 383:.\Generated_Source\PSoC5/cyfitter_cfg.c **** 	CYCONFIGCPY((void CYFAR *)(CYREG_PRT3_DM0), (const void CYFAR *)(BS_IOPINS0_3_VAL), 8u);
 488              		.loc 1 383 0
 489 00a0 1D48     		ldr	r0, .L27+68
 490 00a2 1E49     		ldr	r1, .L27+72
 491 00a4 0822     		movs	r2, #8
 492 00a6 FFF7FEFF 		bl	CYCONFIGCPY
 493              	.LVL40:
 384:.\Generated_Source\PSoC5/cyfitter_cfg.c **** 	/* Switch Boost to the precision bandgap reference from its internal reference */
 385:.\Generated_Source\PSoC5/cyfitter_cfg.c **** 	CY_SET_REG8((void CYXDATA *)CYREG_BOOST_CR2, (CY_GET_REG8((void CYXDATA *)CYREG_BOOST_CR2) | 0x08u
 494              		.loc 1 385 0
 495 00aa 1D4A     		ldr	r2, .L27+76
 496 00ac 1378     		ldrb	r3, [r2]	@ zero_extendqisi2
 497 00ae 43F00803 		orr	r3, r3, #8
 498 00b2 1370     		strb	r3, [r2]
 386:.\Generated_Source\PSoC5/cyfitter_cfg.c **** 
 387:.\Generated_Source\PSoC5/cyfitter_cfg.c **** 	/* Set Flash Cycles based on max possible frequency in case a glitch occurs during ClockSetup(). *
 388:.\Generated_Source\PSoC5/cyfitter_cfg.c **** 	CY_SET_XTND_REG8((void CYFAR *)(CYREG_CACHE_CC_CTL), (((CYDEV_INSTRUCT_CACHE_ENABLED) != 0) ? 0x61
 499              		.loc 1 388 0
 500 00b4 1B4D     		ldr	r5, .L27+80
 501 00b6 6123     		movs	r3, #97
 502 00b8 2B70     		strb	r3, [r5]
 389:.\Generated_Source\PSoC5/cyfitter_cfg.c **** 	/* Setup clocks based on selections from Clock DWR */
 390:.\Generated_Source\PSoC5/cyfitter_cfg.c **** 	ClockSetup();
 503              		.loc 1 390 0
 504 00ba FFF7FEFF 		bl	ClockSetup
 505              	.LVL41:
 391:.\Generated_Source\PSoC5/cyfitter_cfg.c **** 	/* Set Flash Cycles based on newly configured 24.00MHz Bus Clock. */
 392:.\Generated_Source\PSoC5/cyfitter_cfg.c **** 	CY_SET_XTND_REG8((void CYFAR *)(CYREG_CACHE_CC_CTL), (((CYDEV_INSTRUCT_CACHE_ENABLED) != 0) ? 0x81
 506              		.loc 1 392 0
 507 00be 8123     		movs	r3, #129
 508 00c0 2B70     		strb	r3, [r5]
 393:.\Generated_Source\PSoC5/cyfitter_cfg.c **** 
 394:.\Generated_Source\PSoC5/cyfitter_cfg.c **** 	/* Perform basic analog initialization to defaults */
 395:.\Generated_Source\PSoC5/cyfitter_cfg.c **** 	AnalogSetDefault();
ARM GAS  C:\Users\Greg\AppData\Local\Temp\ccTcgJkH.s 			page 17


 509              		.loc 1 395 0
 510 00c2 FFF7FEFF 		bl	AnalogSetDefault
 511              	.LVL42:
 396:.\Generated_Source\PSoC5/cyfitter_cfg.c **** 
 397:.\Generated_Source\PSoC5/cyfitter_cfg.c **** 	/* Configure alternate active mode */
 398:.\Generated_Source\PSoC5/cyfitter_cfg.c **** 	CYCONFIGCPY((void CYFAR *)CYDEV_PM_STBY_BASE, (const void CYFAR *)CYDEV_PM_ACT_BASE, 14u);
 512              		.loc 1 398 0
 513 00c6 1848     		ldr	r0, .L27+84
 514 00c8 2146     		mov	r1, r4
 515 00ca 0E22     		movs	r2, #14
 516 00cc FFF7FEFF 		bl	CYCONFIGCPY
 517              	.LVL43:
 518 00d0 38BD     		pop	{r3, r4, r5, pc}
 519              	.L28:
 520 00d2 00BF     		.align	2
 521              	.L27:
 522 00d4 00000000 		.word	.LANCHOR0
 523 00d8 94000048 		.word	1207959700
 524 00dc 00760040 		.word	1073772032
 525 00e0 08760040 		.word	1073772040
 526 00e4 58070048 		.word	1207961432
 527 00e8 03500140 		.word	1073827843
 528 00ec A0430040 		.word	1073759136
 529 00f0 02510040 		.word	1073762562
 530 00f4 24070048 		.word	1207961380
 531 00f8 C2510040 		.word	1073762754
 532 00fc 2C070048 		.word	1207961388
 533 0100 F0510040 		.word	1073762800
 534 0104 34070048 		.word	1207961396
 535 0108 12510040 		.word	1073762578
 536 010c 40070048 		.word	1207961408
 537 0110 22510040 		.word	1073762594
 538 0114 48070048 		.word	1207961416
 539 0118 32510040 		.word	1073762610
 540 011c 50070048 		.word	1207961424
 541 0120 22430040 		.word	1073759010
 542 0124 00480040 		.word	1073760256
 543 0128 B0430040 		.word	1073759152
 544              		.cfi_endproc
 545              	.LFE7:
 546              		.size	cyfitter_cfg, .-cyfitter_cfg
 547              		.section	.rodata
 548              		.align	2
 549              		.set	.LANCHOR0,. + 0
 550              		.type	cfg_memset_list.4871, %object
 551              		.size	cfg_memset_list.4871, 36
 552              	cfg_memset_list.4871:
 553 0000 40510040 		.word	1073762624
 554 0004 3000     		.short	48
 555 0006 00000140 		.4byte	1073807360
 556 000a 0010     		.short	4096
 557 000c 00140140 		.word	1073812480
 558 0010 0008     		.short	2048
 559 0012 00400140 		.4byte	1073823744
 560 0016 000A     		.short	2560
 561 0018 004C0140 		.word	1073826816
 562 001c 0002     		.short	512
ARM GAS  C:\Users\Greg\AppData\Local\Temp\ccTcgJkH.s 			page 18


 563 001e 00500140 		.4byte	1073827840
 564 0022 2000     		.short	32
 565              		.text
 566              	.Letext0:
 567              		.file 2 "c:\\program files (x86)\\cypress\\psoc creator\\3.3\\psoc creator\\import\\gnu\\arm\\4.9.
 568              		.file 3 ".\\Generated_Source\\PSoC5\\cytypes.h"