ARM GAS  C:\Users\Alex\AppData\Local\Temp\ccvUDGKb.s 			page 1


   1              		.syntax unified
   2              		.cpu cortex-m3
   3              		.fpu softvfp
   4              		.eabi_attribute 20, 1
   5              		.eabi_attribute 21, 1
   6              		.eabi_attribute 23, 3
   7              		.eabi_attribute 24, 1
   8              		.eabi_attribute 25, 1
   9              		.eabi_attribute 26, 1
  10              		.eabi_attribute 30, 1
  11              		.eabi_attribute 34, 1
  12              		.eabi_attribute 18, 4
  13              		.thumb
  14              		.syntax unified
  15              		.file	"main.c"
  16              		.text
  17              	.Ltext0:
  18              		.cfi_sections	.debug_frame
  19              		.section	.text.main,"ax",%progbits
  20              		.align	2
  21              		.global	main
  22              		.thumb
  23              		.thumb_func
  24              		.type	main, %function
  25              	main:
  26              	.LFB63:
  27              		.file 1 "main.c"
   1:main.c        **** /* ========================================
   2:main.c        ****  *
   3:main.c        ****  * Copyright YOUR COMPANY, THE YEAR
   4:main.c        ****  * All Rights Reserved
   5:main.c        ****  * UNPUBLISHED, LICENSED SOFTWARE.
   6:main.c        ****  *
   7:main.c        ****  * CONFIDENTIAL AND PROPRIETARY INFORMATION
   8:main.c        ****  * WHICH IS THE PROPERTY OF your company.
   9:main.c        ****  *
  10:main.c        ****  * ========================================
  11:main.c        **** */
  12:main.c        **** #include "project.h"
  13:main.c        **** 
  14:main.c        **** int main(void)
  15:main.c        **** {
  28              		.loc 1 15 0
  29              		.cfi_startproc
  30              		@ args = 0, pretend = 0, frame = 0
  31              		@ frame_needed = 0, uses_anonymous_args = 0
  32 0000 2DE9F047 		push	{r4, r5, r6, r7, r8, r9, r10, lr}
  33              		.cfi_def_cfa_offset 32
  34              		.cfi_offset 4, -32
  35              		.cfi_offset 5, -28
  36              		.cfi_offset 6, -24
  37              		.cfi_offset 7, -20
  38              		.cfi_offset 8, -16
  39              		.cfi_offset 9, -12
  40              		.cfi_offset 10, -8
  41              		.cfi_offset 14, -4
  16:main.c        ****     CyGlobalIntEnable; /* Enable global interrupts. */
ARM GAS  C:\Users\Alex\AppData\Local\Temp\ccvUDGKb.s 			page 2


  42              		.loc 1 16 0
  43              		.syntax unified
  44              	@ 16 "main.c" 1
  45 0004 62B6     		CPSIE   i
  46              	@ 0 "" 2
  17:main.c        ****     uint8_t A_Button_State;
  18:main.c        ****     uint8_t B_Button_State;
  19:main.c        ****     uint8_t X_Button_State;
  20:main.c        ****     uint8_t Y_Button_State;
  21:main.c        ****     
  22:main.c        ****     uint8_t Select_Button_State;
  23:main.c        ****     uint8_t Start_Button_State;
  24:main.c        ****     
  25:main.c        ****     uint8_t Joystick_Button_State;
  26:main.c        **** 
  27:main.c        ****     /* Place your initialization/startup code here (e.g. MyInst_Start()) */
  28:main.c        ****     DEBUG_UART_Start();
  47              		.loc 1 28 0
  48              		.thumb
  49              		.syntax unified
  50 0006 FFF7FEFF 		bl	DEBUG_UART_Start
  51              	.LVL0:
  52              	.L16:
  29:main.c        **** 
  30:main.c        ****     for(;;)
  31:main.c        ****     {
  32:main.c        ****         /* Place your application code here. */
  33:main.c        ****         
  34:main.c        ****         //Every 100ms print out the buttons being pressed and the joystick value
  35:main.c        ****         CyDelay(100);
  53              		.loc 1 35 0
  54 000a 6420     		movs	r0, #100
  55 000c FFF7FEFF 		bl	CyDelay
  56              	.LVL1:
  36:main.c        ****         A_Button_State = A_Button_Read();
  57              		.loc 1 36 0
  58 0010 FFF7FEFF 		bl	A_Button_Read
  59              	.LVL2:
  60 0014 8246     		mov	r10, r0
  61              	.LVL3:
  37:main.c        ****         B_Button_State = B_Button_Read();
  62              		.loc 1 37 0
  63 0016 FFF7FEFF 		bl	B_Button_Read
  64              	.LVL4:
  65 001a 8146     		mov	r9, r0
  66              	.LVL5:
  38:main.c        ****         X_Button_State = X_Button_Read();
  67              		.loc 1 38 0
  68 001c FFF7FEFF 		bl	X_Button_Read
  69              	.LVL6:
  70 0020 8046     		mov	r8, r0
  71              	.LVL7:
  39:main.c        ****         Y_Button_State = Y_Button_Read();
  72              		.loc 1 39 0
  73 0022 FFF7FEFF 		bl	Y_Button_Read
  74              	.LVL8:
  75 0026 0746     		mov	r7, r0
ARM GAS  C:\Users\Alex\AppData\Local\Temp\ccvUDGKb.s 			page 3


  76              	.LVL9:
  40:main.c        ****         
  41:main.c        ****         Select_Button_State = Select_Button_Read();
  77              		.loc 1 41 0
  78 0028 FFF7FEFF 		bl	Select_Button_Read
  79              	.LVL10:
  80 002c 0646     		mov	r6, r0
  81              	.LVL11:
  42:main.c        ****         Start_Button_State = Start_Button_Read();
  82              		.loc 1 42 0
  83 002e FFF7FEFF 		bl	Start_Button_Read
  84              	.LVL12:
  85 0032 0546     		mov	r5, r0
  86              	.LVL13:
  43:main.c        ****         
  44:main.c        ****         Joystick_Button_State = Joystick_Button_Read();
  87              		.loc 1 44 0
  88 0034 FFF7FEFF 		bl	Joystick_Button_Read
  89              	.LVL14:
  90 0038 0446     		mov	r4, r0
  91              	.LVL15:
  45:main.c        ****         
  46:main.c        ****         //Print out via Debug the states of each button
  47:main.c        ****         if( A_Button_State )
  92              		.loc 1 47 0
  93 003a BAF1000F 		cmp	r10, #0
  94 003e 03D0     		beq	.L2
  48:main.c        ****         {
  49:main.c        ****             DEBUG_UART_PutString("A\t");
  95              		.loc 1 49 0
  96 0040 1F48     		ldr	r0, .L18
  97 0042 FFF7FEFF 		bl	DEBUG_UART_PutString
  98              	.LVL16:
  99 0046 02E0     		b	.L3
 100              	.L2:
  50:main.c        ****         }
  51:main.c        ****         else
  52:main.c        ****         {
  53:main.c        ****             DEBUG_UART_PutString("\t");
 101              		.loc 1 53 0
 102 0048 1E48     		ldr	r0, .L18+4
 103 004a FFF7FEFF 		bl	DEBUG_UART_PutString
 104              	.LVL17:
 105              	.L3:
  54:main.c        ****         }
  55:main.c        ****         
  56:main.c        ****         if( B_Button_State )
 106              		.loc 1 56 0
 107 004e B9F1000F 		cmp	r9, #0
 108 0052 03D0     		beq	.L4
  57:main.c        ****         {
  58:main.c        ****             DEBUG_UART_PutString("B\t");
 109              		.loc 1 58 0
 110 0054 1C48     		ldr	r0, .L18+8
 111 0056 FFF7FEFF 		bl	DEBUG_UART_PutString
 112              	.LVL18:
 113 005a 02E0     		b	.L5
ARM GAS  C:\Users\Alex\AppData\Local\Temp\ccvUDGKb.s 			page 4


 114              	.L4:
  59:main.c        ****         }
  60:main.c        ****         else
  61:main.c        ****         {
  62:main.c        ****             DEBUG_UART_PutString("\t");
 115              		.loc 1 62 0
 116 005c 1948     		ldr	r0, .L18+4
 117 005e FFF7FEFF 		bl	DEBUG_UART_PutString
 118              	.LVL19:
 119              	.L5:
  63:main.c        ****         }
  64:main.c        ****         
  65:main.c        ****         if( X_Button_State )
 120              		.loc 1 65 0
 121 0062 B8F1000F 		cmp	r8, #0
 122 0066 03D0     		beq	.L6
  66:main.c        ****         {
  67:main.c        ****             DEBUG_UART_PutString("X\t");
 123              		.loc 1 67 0
 124 0068 1848     		ldr	r0, .L18+12
 125 006a FFF7FEFF 		bl	DEBUG_UART_PutString
 126              	.LVL20:
 127 006e 02E0     		b	.L7
 128              	.L6:
  68:main.c        ****         }
  69:main.c        ****         else
  70:main.c        ****         {
  71:main.c        ****             DEBUG_UART_PutString("\t");
 129              		.loc 1 71 0
 130 0070 1448     		ldr	r0, .L18+4
 131 0072 FFF7FEFF 		bl	DEBUG_UART_PutString
 132              	.LVL21:
 133              	.L7:
  72:main.c        ****         }
  73:main.c        ****         
  74:main.c        ****         if( Y_Button_State )
 134              		.loc 1 74 0
 135 0076 1FB1     		cbz	r7, .L8
  75:main.c        ****         {
  76:main.c        ****             DEBUG_UART_PutString("Y\t");
 136              		.loc 1 76 0
 137 0078 1548     		ldr	r0, .L18+16
 138 007a FFF7FEFF 		bl	DEBUG_UART_PutString
 139              	.LVL22:
 140 007e 02E0     		b	.L9
 141              	.L8:
  77:main.c        ****         }
  78:main.c        ****         else
  79:main.c        ****         {
  80:main.c        ****             DEBUG_UART_PutString("\t");
 142              		.loc 1 80 0
 143 0080 1048     		ldr	r0, .L18+4
 144 0082 FFF7FEFF 		bl	DEBUG_UART_PutString
 145              	.LVL23:
 146              	.L9:
  81:main.c        ****         }
  82:main.c        ****         
ARM GAS  C:\Users\Alex\AppData\Local\Temp\ccvUDGKb.s 			page 5


  83:main.c        ****         if( Select_Button_State )
 147              		.loc 1 83 0
 148 0086 1EB1     		cbz	r6, .L10
  84:main.c        ****         {
  85:main.c        ****             DEBUG_UART_PutString("Select\t");
 149              		.loc 1 85 0
 150 0088 1248     		ldr	r0, .L18+20
 151 008a FFF7FEFF 		bl	DEBUG_UART_PutString
 152              	.LVL24:
 153 008e 02E0     		b	.L11
 154              	.L10:
  86:main.c        ****         }
  87:main.c        ****         else
  88:main.c        ****         {
  89:main.c        ****             DEBUG_UART_PutString("\t");
 155              		.loc 1 89 0
 156 0090 0C48     		ldr	r0, .L18+4
 157 0092 FFF7FEFF 		bl	DEBUG_UART_PutString
 158              	.LVL25:
 159              	.L11:
  90:main.c        ****         }
  91:main.c        ****         
  92:main.c        ****         if( Start_Button_State )
 160              		.loc 1 92 0
 161 0096 1DB1     		cbz	r5, .L12
  93:main.c        ****         {
  94:main.c        ****             DEBUG_UART_PutString("Start\t");
 162              		.loc 1 94 0
 163 0098 0F48     		ldr	r0, .L18+24
 164 009a FFF7FEFF 		bl	DEBUG_UART_PutString
 165              	.LVL26:
 166 009e 02E0     		b	.L13
 167              	.L12:
  95:main.c        ****         }
  96:main.c        ****         else
  97:main.c        ****         {
  98:main.c        ****             DEBUG_UART_PutString("\t");
 168              		.loc 1 98 0
 169 00a0 0848     		ldr	r0, .L18+4
 170 00a2 FFF7FEFF 		bl	DEBUG_UART_PutString
 171              	.LVL27:
 172              	.L13:
  99:main.c        ****         }
 100:main.c        ****         
 101:main.c        ****         if( !Joystick_Button_State )
 173              		.loc 1 101 0
 174 00a6 1CB9     		cbnz	r4, .L14
 102:main.c        ****         {
 103:main.c        ****             DEBUG_UART_PutString("Joy\t");
 175              		.loc 1 103 0
 176 00a8 0C48     		ldr	r0, .L18+28
 177 00aa FFF7FEFF 		bl	DEBUG_UART_PutString
 178              	.LVL28:
 179 00ae 02E0     		b	.L15
 180              	.L14:
 104:main.c        ****         }
 105:main.c        ****         else
ARM GAS  C:\Users\Alex\AppData\Local\Temp\ccvUDGKb.s 			page 6


 106:main.c        ****         {
 107:main.c        ****             DEBUG_UART_PutString("\t");
 181              		.loc 1 107 0
 182 00b0 0448     		ldr	r0, .L18+4
 183 00b2 FFF7FEFF 		bl	DEBUG_UART_PutString
 184              	.LVL29:
 185              	.L15:
 108:main.c        ****         }
 109:main.c        ****         
 110:main.c        ****         
 111:main.c        ****         DEBUG_UART_PutString("\r\n");
 186              		.loc 1 111 0
 187 00b6 0A48     		ldr	r0, .L18+32
 188 00b8 FFF7FEFF 		bl	DEBUG_UART_PutString
 189              	.LVL30:
 112:main.c        ****         
 113:main.c        ****     }
 190              		.loc 1 113 0
 191 00bc A5E7     		b	.L16
 192              	.L19:
 193 00be 00BF     		.align	2
 194              	.L18:
 195 00c0 00000000 		.word	.LC0
 196 00c4 04000000 		.word	.LC1
 197 00c8 08000000 		.word	.LC2
 198 00cc 0C000000 		.word	.LC3
 199 00d0 10000000 		.word	.LC4
 200 00d4 14000000 		.word	.LC5
 201 00d8 1C000000 		.word	.LC6
 202 00dc 24000000 		.word	.LC7
 203 00e0 2C000000 		.word	.LC8
 204              		.cfi_endproc
 205              	.LFE63:
 206              		.size	main, .-main
 207              		.section	.rodata.str1.4,"aMS",%progbits,1
 208              		.align	2
 209              	.LC0:
 210 0000 410900   		.ascii	"A\011\000"
 211 0003 00       		.space	1
 212              	.LC1:
 213 0004 0900     		.ascii	"\011\000"
 214 0006 0000     		.space	2
 215              	.LC2:
 216 0008 420900   		.ascii	"B\011\000"
 217 000b 00       		.space	1
 218              	.LC3:
 219 000c 580900   		.ascii	"X\011\000"
 220 000f 00       		.space	1
 221              	.LC4:
 222 0010 590900   		.ascii	"Y\011\000"
 223 0013 00       		.space	1
 224              	.LC5:
 225 0014 53656C65 		.ascii	"Select\011\000"
 225      63740900 
 226              	.LC6:
 227 001c 53746172 		.ascii	"Start\011\000"
 227      740900
ARM GAS  C:\Users\Alex\AppData\Local\Temp\ccvUDGKb.s 			page 7


 228 0023 00       		.space	1
 229              	.LC7:
 230 0024 4A6F7909 		.ascii	"Joy\011\000"
 230      00
 231 0029 000000   		.space	3
 232              	.LC8:
 233 002c 0D0A00   		.ascii	"\015\012\000"
 234              		.text
 235              	.Letext0:
 236              		.file 2 "c:\\program files (x86)\\cypress\\psoc creator\\4.1\\psoc creator\\import\\gnu\\arm\\5.4.
 237              		.file 3 "c:\\program files (x86)\\cypress\\psoc creator\\4.1\\psoc creator\\import\\gnu\\arm\\5.4.
 238              		.file 4 "Generated_Source\\PSoC5/DEBUG_UART.h"
 239              		.file 5 "Generated_Source\\PSoC5/CyLib.h"
 240              		.file 6 "Generated_Source\\PSoC5/A_Button.h"
 241              		.file 7 "Generated_Source\\PSoC5/B_Button.h"
 242              		.file 8 "Generated_Source\\PSoC5/X_Button.h"
 243              		.file 9 "Generated_Source\\PSoC5/Y_Button.h"
 244              		.file 10 "Generated_Source\\PSoC5/Select_Button.h"
 245              		.file 11 "Generated_Source\\PSoC5/Start_Button.h"
 246              		.file 12 "Generated_Source\\PSoC5/Joystick_Button.h"
 247              		.file 13 "Generated_Source\\PSoC5/core_cm3.h"