ARM GAS  C:\Users\PROMET~1\AppData\Local\Temp\ccrQHHvZ.s 			page 1


   1              		.syntax unified
   2              		.cpu cortex-m3
   3              		.fpu softvfp
   4              		.eabi_attribute 20, 1
   5              		.eabi_attribute 21, 1
   6              		.eabi_attribute 23, 3
   7              		.eabi_attribute 24, 1
   8              		.eabi_attribute 25, 1
   9              		.eabi_attribute 26, 1
  10              		.eabi_attribute 30, 1
  11              		.eabi_attribute 34, 1
  12              		.eabi_attribute 18, 4
  13              		.thumb
  14              		.syntax unified
  15              		.file	"main.c"
  16              		.text
  17              	.Ltext0:
  18              		.cfi_sections	.debug_frame
  19              		.section	.text.debug_uart_sendUSBreport,"ax",%progbits
  20              		.align	2
  21              		.global	debug_uart_sendUSBreport
  22              		.thumb
  23              		.thumb_func
  24              		.type	debug_uart_sendUSBreport, %function
  25              	debug_uart_sendUSBreport:
  26              	.LFB63:
  27              		.file 1 "main.c"
   1:main.c        **** /* ========================================
   2:main.c        ****  *
   3:main.c        ****  * Copyright YOUR COMPANY, THE YEAR
   4:main.c        ****  * All Rights Reserved
   5:main.c        ****  * UNPUBLISHED, LICENSED SOFTWARE.
   6:main.c        ****  *
   7:main.c        ****  * CONFIDENTIAL AND PROPRIETARY INFORMATION
   8:main.c        ****  * WHICH IS THE PROPERTY OF your company.
   9:main.c        ****  *
  10:main.c        ****  * ========================================
  11:main.c        **** */
  12:main.c        **** #include "project.h"
  13:main.c        **** #include "uart_handler.h"
  14:main.c        **** #include "Joystick_Inputs.h"
  15:main.c        **** 
  16:main.c        **** 
  17:main.c        **** #define DEBUG_ENABLE TRUE
  18:main.c        **** 
  19:main.c        **** #define EP1 1u
  20:main.c        **** 
  21:main.c        **** static int8 USB_Input_Report_Data[ANALOG_INPUT_SIZE + BUTTON_INPUT_SIZE]; /* USB data to send to th
  22:main.c        **** 
  23:main.c        **** void debug_uart_sendUSBreport(void)
  24:main.c        **** {
  28              		.loc 1 24 0
  29              		.cfi_startproc
  30              		@ args = 0, pretend = 0, frame = 0
  31              		@ frame_needed = 0, uses_anonymous_args = 0
  32 0000 10B5     		push	{r4, lr}
  33              		.cfi_def_cfa_offset 8
ARM GAS  C:\Users\PROMET~1\AppData\Local\Temp\ccrQHHvZ.s 			page 2


  34              		.cfi_offset 4, -8
  35              		.cfi_offset 14, -4
  36              	.LVL0:
  25:main.c        ****     uint16_t loop_index;
  26:main.c        ****     
  27:main.c        ****     //UART Debug interface will stream out the contents of the USB report
  28:main.c        ****     #if(DEBUG_ENABLE == TRUE)
  29:main.c        ****     //Transmit USB_Input_Data over debug
  30:main.c        ****     for(loop_index = 0; loop_index < sizeof(USB_Input_Report_Data); loop_index++)
  37              		.loc 1 30 0
  38 0002 0024     		movs	r4, #0
  39 0004 08E0     		b	.L2
  40              	.LVL1:
  41              	.L3:
  31:main.c        ****     {
  32:main.c        ****         uart_put_hex_8bit(USB_Input_Report_Data[loop_index]);
  42              		.loc 1 32 0 discriminator 3
  43 0006 094B     		ldr	r3, .L5
  44 0008 185D     		ldrb	r0, [r3, r4]	@ zero_extendqisi2
  45 000a FFF7FEFF 		bl	uart_put_hex_8bit
  46              	.LVL2:
  33:main.c        ****         debug_putc(0x09);
  47              		.loc 1 33 0 discriminator 3
  48 000e 0920     		movs	r0, #9
  49 0010 FFF7FEFF 		bl	DEBUG_UART_PutChar
  50              	.LVL3:
  30:main.c        ****     {
  51              		.loc 1 30 0 discriminator 3
  52 0014 0134     		adds	r4, r4, #1
  53              	.LVL4:
  54 0016 A4B2     		uxth	r4, r4
  55              	.LVL5:
  56              	.L2:
  30:main.c        ****     {
  57              		.loc 1 30 0 is_stmt 0 discriminator 1
  58 0018 022C     		cmp	r4, #2
  59 001a F4D9     		bls	.L3
  34:main.c        ****     }
  35:main.c        ****     debug_putc(0x0A);
  60              		.loc 1 35 0 is_stmt 1
  61 001c 0A20     		movs	r0, #10
  62 001e FFF7FEFF 		bl	DEBUG_UART_PutChar
  63              	.LVL6:
  36:main.c        ****     debug_putc(0x0D);
  64              		.loc 1 36 0
  65 0022 0D20     		movs	r0, #13
  66 0024 FFF7FEFF 		bl	DEBUG_UART_PutChar
  67              	.LVL7:
  68 0028 10BD     		pop	{r4, pc}
  69              	.LVL8:
  70              	.L6:
  71 002a 00BF     		.align	2
  72              	.L5:
  73 002c 00000000 		.word	.LANCHOR0
  74              		.cfi_endproc
  75              	.LFE63:
  76              		.size	debug_uart_sendUSBreport, .-debug_uart_sendUSBreport
ARM GAS  C:\Users\PROMET~1\AppData\Local\Temp\ccrQHHvZ.s 			page 3


  77              		.section	.text.reset_USB_Report,"ax",%progbits
  78              		.align	2
  79              		.global	reset_USB_Report
  80              		.thumb
  81              		.thumb_func
  82              		.type	reset_USB_Report, %function
  83              	reset_USB_Report:
  84              	.LFB64:
  37:main.c        ****     #endif
  38:main.c        **** }
  39:main.c        **** 
  40:main.c        **** void reset_USB_Report(void)
  41:main.c        **** {
  85              		.loc 1 41 0
  86              		.cfi_startproc
  87              		@ args = 0, pretend = 0, frame = 0
  88              		@ frame_needed = 0, uses_anonymous_args = 0
  89              		@ link register save eliminated.
  90              	.LVL9:
  42:main.c        ****     uint16_t loop_index;
  43:main.c        ****     for(loop_index = 0; loop_index < sizeof(USB_Input_Report_Data); loop_index++)
  91              		.loc 1 43 0
  92 0000 0023     		movs	r3, #0
  93 0002 04E0     		b	.L8
  94              	.LVL10:
  95              	.L9:
  44:main.c        ****     {
  45:main.c        ****         USB_Input_Report_Data[loop_index] = 0x00u;
  96              		.loc 1 45 0 discriminator 3
  97 0004 0021     		movs	r1, #0
  98 0006 034A     		ldr	r2, .L10
  99 0008 D154     		strb	r1, [r2, r3]
  43:main.c        ****     {
 100              		.loc 1 43 0 discriminator 3
 101 000a 0133     		adds	r3, r3, #1
 102              	.LVL11:
 103 000c 9BB2     		uxth	r3, r3
 104              	.LVL12:
 105              	.L8:
  43:main.c        ****     {
 106              		.loc 1 43 0 is_stmt 0 discriminator 1
 107 000e 022B     		cmp	r3, #2
 108 0010 F8D9     		bls	.L9
  46:main.c        ****     }
  47:main.c        ****     
  48:main.c        **** }
 109              		.loc 1 48 0 is_stmt 1
 110 0012 7047     		bx	lr
 111              	.L11:
 112              		.align	2
 113              	.L10:
 114 0014 00000000 		.word	.LANCHOR0
 115              		.cfi_endproc
 116              	.LFE64:
 117              		.size	reset_USB_Report, .-reset_USB_Report
 118              		.section	.text.main,"ax",%progbits
 119              		.align	2
ARM GAS  C:\Users\PROMET~1\AppData\Local\Temp\ccrQHHvZ.s 			page 4


 120              		.global	main
 121              		.thumb
 122              		.thumb_func
 123              		.type	main, %function
 124              	main:
 125              	.LFB65:
  49:main.c        **** 
  50:main.c        **** 
  51:main.c        **** int main(void)
  52:main.c        **** {
 126              		.loc 1 52 0
 127              		.cfi_startproc
 128              		@ Volatile: function does not return.
 129              		@ args = 0, pretend = 0, frame = 0
 130              		@ frame_needed = 0, uses_anonymous_args = 0
 131 0000 08B5     		push	{r3, lr}
 132              		.cfi_def_cfa_offset 8
 133              		.cfi_offset 3, -8
 134              		.cfi_offset 14, -4
  53:main.c        ****     CyGlobalIntEnable; /* Enable global interrupts. */
 135              		.loc 1 53 0
 136              		.syntax unified
 137              	@ 53 "main.c" 1
 138 0002 62B6     		CPSIE   i
 139              	@ 0 "" 2
  54:main.c        **** 
  55:main.c        ****     /* Place your initialization/startup code here (e.g. MyInst_Start()) */
  56:main.c        ****     DEBUG_UART_Start();
 140              		.loc 1 56 0
 141              		.thumb
 142              		.syntax unified
 143 0004 FFF7FEFF 		bl	DEBUG_UART_Start
 144              	.LVL13:
  57:main.c        ****     ADC_SAR_Seq_1_Start();
 145              		.loc 1 57 0
 146 0008 FFF7FEFF 		bl	ADC_SAR_Seq_1_Start
 147              	.LVL14:
  58:main.c        ****     ADC_SAR_Seq_1_StartConvert();
 148              		.loc 1 58 0
 149 000c FFF7FEFF 		bl	ADC_SAR_Seq_1_StartConvert
 150              	.LVL15:
  59:main.c        ****     
  60:main.c        ****     USBFS_1_Start(0, USBFS_1_DWR_VDDD_OPERATION);	/* Start USBFS operation/device 0 and with 5V ope
 151              		.loc 1 60 0
 152 0010 0221     		movs	r1, #2
 153 0012 0020     		movs	r0, #0
 154 0014 FFF7FEFF 		bl	USBFS_1_Start
 155              	.LVL16:
 156              	.L13:
  61:main.c        **** 	
  62:main.c        ****     while(!USBFS_1_bGetConfiguration())
 157              		.loc 1 62 0 discriminator 1
 158 0018 FFF7FEFF 		bl	USBFS_1_GetConfiguration
 159              	.LVL17:
 160 001c 0028     		cmp	r0, #0
 161 001e FBD0     		beq	.L13
  63:main.c        ****     {
ARM GAS  C:\Users\PROMET~1\AppData\Local\Temp\ccrQHHvZ.s 			page 5


  64:main.c        ****         /* Wait for Device to enumerate */
  65:main.c        ****     }
  66:main.c        ****     
  67:main.c        ****     /* Loads an inital value into EP1 and sends it out to the PC */
  68:main.c        ****     USBFS_1_LoadInEP(EP1, (uint8 *)USB_Input_Report_Data, sizeof(USB_Input_Report_Data)); 
 162              		.loc 1 68 0
 163 0020 0322     		movs	r2, #3
 164 0022 2949     		ldr	r1, .L18
 165 0024 0120     		movs	r0, #1
 166 0026 FFF7FEFF 		bl	USBFS_1_LoadInEP
 167              	.LVL18:
 168              	.L14:
  69:main.c        ****     
  70:main.c        ****     for(;;)
  71:main.c        ****     {
  72:main.c        ****         
  73:main.c        ****         while(!USBFS_1_bGetEPAckState(EP1)); 	/* Wait for ACK before loading data */
 169              		.loc 1 73 0 discriminator 1
 170 002a 0120     		movs	r0, #1
 171 002c FFF7FEFF 		bl	USBFS_1_GetEPAckState
 172              	.LVL19:
 173 0030 0028     		cmp	r0, #0
 174 0032 FAD0     		beq	.L14
  74:main.c        ****         
  75:main.c        ****         ///////////////////////////////////////////////////////////////////////////////////////////
  76:main.c        ****         //
  77:main.c        ****         //                  Read MCU inputs (analog, digital, external sensors) below
  78:main.c        ****         //
  79:main.c        ****         ///////////////////////////////////////////////////////////////////////////////////////////
  80:main.c        ****         reset_USB_Report();  //reset the USB report to zero
 175              		.loc 1 80 0
 176 0034 FFF7FEFF 		bl	reset_USB_Report
 177              	.LVL20:
  81:main.c        ****         
  82:main.c        ****         //Get analog results
  83:main.c        ****         USB_Input_Report_Data[ANALOG_ARRAY_START] = (uint8_t)(ADC_SAR_Seq_1_GetResult16(X_AXIS_CHAN
 178              		.loc 1 83 0
 179 0038 0020     		movs	r0, #0
 180 003a FFF7FEFF 		bl	ADC_SAR_Seq_1_GetResult16
 181              	.LVL21:
 182 003e 8038     		subs	r0, r0, #128
 183 0040 214C     		ldr	r4, .L18
 184 0042 2070     		strb	r0, [r4]
  84:main.c        ****         USB_Input_Report_Data[ANALOG_ARRAY_START+1] = (uint8_t)(ADC_SAR_Seq_1_GetResult16(Y_AXIS_CH
 185              		.loc 1 84 0
 186 0044 0120     		movs	r0, #1
 187 0046 FFF7FEFF 		bl	ADC_SAR_Seq_1_GetResult16
 188              	.LVL22:
 189 004a 8038     		subs	r0, r0, #128
 190 004c 6070     		strb	r0, [r4, #1]
  85:main.c        ****         
  86:main.c        ****         //Write the status of ABXY button to the ABXY bit fields
  87:main.c        ****         USB_Input_Report_Data[A_BUTTON_INDEX] |= (A_Button_Read()<< A_BUTTON_BIT);
 191              		.loc 1 87 0
 192 004e FFF7FEFF 		bl	A_Button_Read
 193              	.LVL23:
 194 0052 A378     		ldrb	r3, [r4, #2]	@ zero_extendqisi2
ARM GAS  C:\Users\PROMET~1\AppData\Local\Temp\ccrQHHvZ.s 			page 6


 195 0054 1843     		orrs	r0, r0, r3
 196 0056 A070     		strb	r0, [r4, #2]
  88:main.c        ****         USB_Input_Report_Data[B_BUTTON_INDEX] |= (B_Button_Read()<< B_BUTTON_BIT);
 197              		.loc 1 88 0
 198 0058 FFF7FEFF 		bl	B_Button_Read
 199              	.LVL24:
 200 005c A378     		ldrb	r3, [r4, #2]	@ zero_extendqisi2
 201 005e 43EA4000 		orr	r0, r3, r0, lsl #1
 202 0062 A070     		strb	r0, [r4, #2]
  89:main.c        ****         USB_Input_Report_Data[X_BUTTON_INDEX] |= (X_Button_Read()<< X_BUTTON_BIT);
 203              		.loc 1 89 0
 204 0064 FFF7FEFF 		bl	X_Button_Read
 205              	.LVL25:
 206 0068 A378     		ldrb	r3, [r4, #2]	@ zero_extendqisi2
 207 006a 43EA8000 		orr	r0, r3, r0, lsl #2
 208 006e A070     		strb	r0, [r4, #2]
  90:main.c        ****         USB_Input_Report_Data[Y_BUTTON_INDEX] |= (Y_Button_Read()<< Y_BUTTON_BIT);
 209              		.loc 1 90 0
 210 0070 FFF7FEFF 		bl	Y_Button_Read
 211              	.LVL26:
 212 0074 A378     		ldrb	r3, [r4, #2]	@ zero_extendqisi2
 213 0076 43EAC000 		orr	r0, r3, r0, lsl #3
 214 007a A070     		strb	r0, [r4, #2]
  91:main.c        ****         
  92:main.c        ****         //Write the status of Start,Select button to the Start,Select bit fields
  93:main.c        ****         USB_Input_Report_Data[START_BUTTON_INDEX] |= (Start_Button_Read()<< START_BUTTON_BIT);
 215              		.loc 1 93 0
 216 007c FFF7FEFF 		bl	Start_Button_Read
 217              	.LVL27:
 218 0080 A378     		ldrb	r3, [r4, #2]	@ zero_extendqisi2
 219 0082 43EA8010 		orr	r0, r3, r0, lsl #6
 220 0086 A070     		strb	r0, [r4, #2]
  94:main.c        ****         USB_Input_Report_Data[SELECT_BUTTON_INDEX] |= (Select_Button_Read()<< SELECT_BUTTON_BIT);
 221              		.loc 1 94 0
 222 0088 FFF7FEFF 		bl	Select_Button_Read
 223              	.LVL28:
 224 008c A378     		ldrb	r3, [r4, #2]	@ zero_extendqisi2
 225 008e 43EAC010 		orr	r0, r3, r0, lsl #7
 226 0092 A070     		strb	r0, [r4, #2]
  95:main.c        ****         
  96:main.c        ****         //Write the status of LR button to the LR bit fields
  97:main.c        ****         USB_Input_Report_Data[L_BUTTON_INDEX] |= (L_Button_Read()<< L_BUTTON_BIT);
 227              		.loc 1 97 0
 228 0094 FFF7FEFF 		bl	L_Button_Read
 229              	.LVL29:
 230 0098 A378     		ldrb	r3, [r4, #2]	@ zero_extendqisi2
 231 009a 43EA0010 		orr	r0, r3, r0, lsl #4
 232 009e A070     		strb	r0, [r4, #2]
  98:main.c        ****         USB_Input_Report_Data[R_BUTTON_INDEX] |= (R_Button_Read()<< R_BUTTON_BIT);
 233              		.loc 1 98 0
 234 00a0 FFF7FEFF 		bl	R_Button_Read
 235              	.LVL30:
 236 00a4 A378     		ldrb	r3, [r4, #2]	@ zero_extendqisi2
 237 00a6 43EA4010 		orr	r0, r3, r0, lsl #5
 238 00aa A070     		strb	r0, [r4, #2]
  99:main.c        ****         
 100:main.c        ****         
ARM GAS  C:\Users\PROMET~1\AppData\Local\Temp\ccrQHHvZ.s 			page 7


 101:main.c        ****         ///////////////////////////////////////////////////////////////////////////////////////////
 102:main.c        ****         //
 103:main.c        ****         //                  Report USB HID inputs to host computer below
 104:main.c        ****         //
 105:main.c        ****         ///////////////////////////////////////////////////////////////////////////////////////////
 106:main.c        ****         
 107:main.c        ****         /*Check to see if the IN Endpoint is empty. If so, load it with Input data to be tranfered 
 108:main.c        ****         if(USBFS_1_GetEPState(EP1) == USBFS_1_IN_BUFFER_EMPTY)
 239              		.loc 1 108 0
 240 00ac 0120     		movs	r0, #1
 241 00ae FFF7FEFF 		bl	USBFS_1_GetEPState
 242              	.LVL31:
 243 00b2 0128     		cmp	r0, #1
 244 00b4 B9D1     		bne	.L14
 109:main.c        ****         {
 110:main.c        ****             //UART Debug interface will stream out the contents of the USB report
 111:main.c        ****             debug_uart_sendUSBreport();
 245              		.loc 1 111 0
 246 00b6 FFF7FEFF 		bl	debug_uart_sendUSBreport
 247              	.LVL32:
 112:main.c        ****             
 113:main.c        **** 		    /* Load latest analog and button data into the IN EP and send */
 114:main.c        ****             USBFS_1_LoadInEP(EP1, (uint8 *)USB_Input_Report_Data, sizeof(USB_Input_Report_Data));  
 248              		.loc 1 114 0
 249 00ba 0322     		movs	r2, #3
 250 00bc 2146     		mov	r1, r4
 251 00be 0120     		movs	r0, #1
 252 00c0 FFF7FEFF 		bl	USBFS_1_LoadInEP
 253              	.LVL33:
 254 00c4 B1E7     		b	.L14
 255              	.L19:
 256 00c6 00BF     		.align	2
 257              	.L18:
 258 00c8 00000000 		.word	.LANCHOR0
 259              		.cfi_endproc
 260              	.LFE65:
 261              		.size	main, .-main
 262              		.bss
 263              		.align	2
 264              		.set	.LANCHOR0,. + 0
 265              		.type	USB_Input_Report_Data, %object
 266              		.size	USB_Input_Report_Data, 3
 267              	USB_Input_Report_Data:
 268 0000 000000   		.space	3
 269              		.text
 270              	.Letext0:
 271              		.file 2 "c:\\program files (x86)\\cypress\\psoc creator\\4.1\\psoc creator\\import\\gnu\\arm\\5.4.
 272              		.file 3 "c:\\program files (x86)\\cypress\\psoc creator\\4.1\\psoc creator\\import\\gnu\\arm\\5.4.
 273              		.file 4 "Generated_Source\\PSoC5/cytypes.h"
 274              		.file 5 "uart_handler.h"
 275              		.file 6 "Generated_Source\\PSoC5/DEBUG_UART.h"
 276              		.file 7 "Generated_Source\\PSoC5/ADC_SAR_Seq_1.h"
 277              		.file 8 "Generated_Source\\PSoC5/USBFS_1.h"
 278              		.file 9 "Generated_Source\\PSoC5/A_Button.h"
 279              		.file 10 "Generated_Source\\PSoC5/B_Button.h"
 280              		.file 11 "Generated_Source\\PSoC5/X_Button.h"
 281              		.file 12 "Generated_Source\\PSoC5/Y_Button.h"
ARM GAS  C:\Users\PROMET~1\AppData\Local\Temp\ccrQHHvZ.s 			page 8


 282              		.file 13 "Generated_Source\\PSoC5/Start_Button.h"
 283              		.file 14 "Generated_Source\\PSoC5/Select_Button.h"
 284              		.file 15 "Generated_Source\\PSoC5/L_Button.h"
 285              		.file 16 "Generated_Source\\PSoC5/R_Button.h"
 286              		.file 17 "Generated_Source\\PSoC5/core_cm3.h"