ARM GAS  C:\Users\Greg\AppData\Local\Temp\ccSZq4Cn.s 			page 1


   1              		.syntax unified
   2              		.cpu cortex-m3
   3              		.fpu softvfp
   4              		.eabi_attribute 20, 1
   5              		.eabi_attribute 21, 1
   6              		.eabi_attribute 23, 3
   7              		.eabi_attribute 24, 1
   8              		.eabi_attribute 25, 1
   9              		.eabi_attribute 26, 1
  10              		.eabi_attribute 30, 1
  11              		.eabi_attribute 34, 1
  12              		.eabi_attribute 18, 4
  13              		.thumb
  14              		.file	"Button_17_22.c"
  15              		.text
  16              	.Ltext0:
  17              		.cfi_sections	.debug_frame
  18              		.section	.text.Button_17_22_Write,"ax",%progbits
  19              		.align	2
  20              		.global	Button_17_22_Write
  21              		.thumb
  22              		.thumb_func
  23              		.type	Button_17_22_Write, %function
  24              	Button_17_22_Write:
  25              	.LFB0:
  26              		.file 1 ".\\Generated_Source\\PSoC5\\Button_17_22.c"
   1:.\Generated_Source\PSoC5/Button_17_22.c **** /*******************************************************************************
   2:.\Generated_Source\PSoC5/Button_17_22.c **** * File Name: Button_17_22.c  
   3:.\Generated_Source\PSoC5/Button_17_22.c **** * Version 2.10
   4:.\Generated_Source\PSoC5/Button_17_22.c **** *
   5:.\Generated_Source\PSoC5/Button_17_22.c **** * Description:
   6:.\Generated_Source\PSoC5/Button_17_22.c **** *  This file contains API to enable firmware control of a Pins component.
   7:.\Generated_Source\PSoC5/Button_17_22.c **** *
   8:.\Generated_Source\PSoC5/Button_17_22.c **** * Note:
   9:.\Generated_Source\PSoC5/Button_17_22.c **** *
  10:.\Generated_Source\PSoC5/Button_17_22.c **** ********************************************************************************
  11:.\Generated_Source\PSoC5/Button_17_22.c **** * Copyright 2008-2014, Cypress Semiconductor Corporation.  All rights reserved.
  12:.\Generated_Source\PSoC5/Button_17_22.c **** * You may use this file only in accordance with the license, terms, conditions, 
  13:.\Generated_Source\PSoC5/Button_17_22.c **** * disclaimers, and limitations in the end user license agreement accompanying 
  14:.\Generated_Source\PSoC5/Button_17_22.c **** * the software package with which this file was provided.
  15:.\Generated_Source\PSoC5/Button_17_22.c **** *******************************************************************************/
  16:.\Generated_Source\PSoC5/Button_17_22.c **** 
  17:.\Generated_Source\PSoC5/Button_17_22.c **** #include "cytypes.h"
  18:.\Generated_Source\PSoC5/Button_17_22.c **** #include "Button_17_22.h"
  19:.\Generated_Source\PSoC5/Button_17_22.c **** 
  20:.\Generated_Source\PSoC5/Button_17_22.c **** /* APIs are not generated for P15[7:6] on PSoC 5 */
  21:.\Generated_Source\PSoC5/Button_17_22.c **** #if !(CY_PSOC5A &&\
  22:.\Generated_Source\PSoC5/Button_17_22.c **** 	 Button_17_22__PORT == 15 && ((Button_17_22__MASK & 0xC0) != 0))
  23:.\Generated_Source\PSoC5/Button_17_22.c **** 
  24:.\Generated_Source\PSoC5/Button_17_22.c **** 
  25:.\Generated_Source\PSoC5/Button_17_22.c **** /*******************************************************************************
  26:.\Generated_Source\PSoC5/Button_17_22.c **** * Function Name: Button_17_22_Write
  27:.\Generated_Source\PSoC5/Button_17_22.c **** ********************************************************************************
  28:.\Generated_Source\PSoC5/Button_17_22.c **** *
  29:.\Generated_Source\PSoC5/Button_17_22.c **** * Summary:
  30:.\Generated_Source\PSoC5/Button_17_22.c **** *  Assign a new value to the digital port's data output register.  
  31:.\Generated_Source\PSoC5/Button_17_22.c **** *
ARM GAS  C:\Users\Greg\AppData\Local\Temp\ccSZq4Cn.s 			page 2


  32:.\Generated_Source\PSoC5/Button_17_22.c **** * Parameters:  
  33:.\Generated_Source\PSoC5/Button_17_22.c **** *  prtValue:  The value to be assigned to the Digital Port. 
  34:.\Generated_Source\PSoC5/Button_17_22.c **** *
  35:.\Generated_Source\PSoC5/Button_17_22.c **** * Return: 
  36:.\Generated_Source\PSoC5/Button_17_22.c **** *  None
  37:.\Generated_Source\PSoC5/Button_17_22.c **** *  
  38:.\Generated_Source\PSoC5/Button_17_22.c **** *******************************************************************************/
  39:.\Generated_Source\PSoC5/Button_17_22.c **** void Button_17_22_Write(uint8 value) 
  40:.\Generated_Source\PSoC5/Button_17_22.c **** {
  27              		.loc 1 40 0
  28              		.cfi_startproc
  29              		@ args = 0, pretend = 0, frame = 0
  30              		@ frame_needed = 0, uses_anonymous_args = 0
  31              		@ link register save eliminated.
  32              	.LVL0:
  41:.\Generated_Source\PSoC5/Button_17_22.c ****     uint8 staticBits = (Button_17_22_DR & (uint8)(~Button_17_22_MASK));
  33              		.loc 1 41 0
  34 0000 044A     		ldr	r2, .L2
  35 0002 1378     		ldrb	r3, [r2]	@ zero_extendqisi2
  36 0004 03F00303 		and	r3, r3, #3
  37              	.LVL1:
  42:.\Generated_Source\PSoC5/Button_17_22.c ****     Button_17_22_DR = staticBits | ((uint8)(value << Button_17_22_SHIFT) & Button_17_22_MASK);
  38              		.loc 1 42 0
  39 0008 8000     		lsls	r0, r0, #2
  40              	.LVL2:
  41 000a C0B2     		uxtb	r0, r0
  42 000c 0343     		orrs	r3, r3, r0
  43              	.LVL3:
  44 000e 1370     		strb	r3, [r2]
  45 0010 7047     		bx	lr
  46              	.L3:
  47 0012 00BF     		.align	2
  48              	.L2:
  49 0014 10510040 		.word	1073762576
  50              		.cfi_endproc
  51              	.LFE0:
  52              		.size	Button_17_22_Write, .-Button_17_22_Write
  53              		.section	.text.Button_17_22_SetDriveMode,"ax",%progbits
  54              		.align	2
  55              		.global	Button_17_22_SetDriveMode
  56              		.thumb
  57              		.thumb_func
  58              		.type	Button_17_22_SetDriveMode, %function
  59              	Button_17_22_SetDriveMode:
  60              	.LFB1:
  43:.\Generated_Source\PSoC5/Button_17_22.c **** }
  44:.\Generated_Source\PSoC5/Button_17_22.c **** 
  45:.\Generated_Source\PSoC5/Button_17_22.c **** 
  46:.\Generated_Source\PSoC5/Button_17_22.c **** /*******************************************************************************
  47:.\Generated_Source\PSoC5/Button_17_22.c **** * Function Name: Button_17_22_SetDriveMode
  48:.\Generated_Source\PSoC5/Button_17_22.c **** ********************************************************************************
  49:.\Generated_Source\PSoC5/Button_17_22.c **** *
  50:.\Generated_Source\PSoC5/Button_17_22.c **** * Summary:
  51:.\Generated_Source\PSoC5/Button_17_22.c **** *  Change the drive mode on the pins of the port.
  52:.\Generated_Source\PSoC5/Button_17_22.c **** * 
  53:.\Generated_Source\PSoC5/Button_17_22.c **** * Parameters:  
  54:.\Generated_Source\PSoC5/Button_17_22.c **** *  mode:  Change the pins to one of the following drive modes.
ARM GAS  C:\Users\Greg\AppData\Local\Temp\ccSZq4Cn.s 			page 3


  55:.\Generated_Source\PSoC5/Button_17_22.c **** *
  56:.\Generated_Source\PSoC5/Button_17_22.c **** *  Button_17_22_DM_STRONG     Strong Drive 
  57:.\Generated_Source\PSoC5/Button_17_22.c **** *  Button_17_22_DM_OD_HI      Open Drain, Drives High 
  58:.\Generated_Source\PSoC5/Button_17_22.c **** *  Button_17_22_DM_OD_LO      Open Drain, Drives Low 
  59:.\Generated_Source\PSoC5/Button_17_22.c **** *  Button_17_22_DM_RES_UP     Resistive Pull Up 
  60:.\Generated_Source\PSoC5/Button_17_22.c **** *  Button_17_22_DM_RES_DWN    Resistive Pull Down 
  61:.\Generated_Source\PSoC5/Button_17_22.c **** *  Button_17_22_DM_RES_UPDWN  Resistive Pull Up/Down 
  62:.\Generated_Source\PSoC5/Button_17_22.c **** *  Button_17_22_DM_DIG_HIZ    High Impedance Digital 
  63:.\Generated_Source\PSoC5/Button_17_22.c **** *  Button_17_22_DM_ALG_HIZ    High Impedance Analog 
  64:.\Generated_Source\PSoC5/Button_17_22.c **** *
  65:.\Generated_Source\PSoC5/Button_17_22.c **** * Return: 
  66:.\Generated_Source\PSoC5/Button_17_22.c **** *  None
  67:.\Generated_Source\PSoC5/Button_17_22.c **** *
  68:.\Generated_Source\PSoC5/Button_17_22.c **** *******************************************************************************/
  69:.\Generated_Source\PSoC5/Button_17_22.c **** void Button_17_22_SetDriveMode(uint8 mode) 
  70:.\Generated_Source\PSoC5/Button_17_22.c **** {
  61              		.loc 1 70 0
  62              		.cfi_startproc
  63              		@ args = 0, pretend = 0, frame = 0
  64              		@ frame_needed = 0, uses_anonymous_args = 0
  65              		@ link register save eliminated.
  66              	.LVL4:
  71:.\Generated_Source\PSoC5/Button_17_22.c **** 	CyPins_SetPinDriveMode(Button_17_22_0, mode);
  67              		.loc 1 71 0
  68 0000 134A     		ldr	r2, .L5
  69 0002 1378     		ldrb	r3, [r2]	@ zero_extendqisi2
  70 0004 00F00E00 		and	r0, r0, #14
  71              	.LVL5:
  72 0008 03F0F103 		and	r3, r3, #241
  73 000c 0343     		orrs	r3, r3, r0
  74 000e 1370     		strb	r3, [r2]
  72:.\Generated_Source\PSoC5/Button_17_22.c **** 	CyPins_SetPinDriveMode(Button_17_22_1, mode);
  75              		.loc 1 72 0
  76 0010 0132     		adds	r2, r2, #1
  77 0012 1378     		ldrb	r3, [r2]	@ zero_extendqisi2
  78 0014 03F0F103 		and	r3, r3, #241
  79 0018 0343     		orrs	r3, r3, r0
  80 001a 1370     		strb	r3, [r2]
  73:.\Generated_Source\PSoC5/Button_17_22.c **** 	CyPins_SetPinDriveMode(Button_17_22_2, mode);
  81              		.loc 1 73 0
  82 001c 0132     		adds	r2, r2, #1
  83 001e 1378     		ldrb	r3, [r2]	@ zero_extendqisi2
  84 0020 03F0F103 		and	r3, r3, #241
  85 0024 0343     		orrs	r3, r3, r0
  86 0026 1370     		strb	r3, [r2]
  74:.\Generated_Source\PSoC5/Button_17_22.c **** 	CyPins_SetPinDriveMode(Button_17_22_3, mode);
  87              		.loc 1 74 0
  88 0028 0132     		adds	r2, r2, #1
  89 002a 1378     		ldrb	r3, [r2]	@ zero_extendqisi2
  90 002c 03F0F103 		and	r3, r3, #241
  91 0030 0343     		orrs	r3, r3, r0
  92 0032 1370     		strb	r3, [r2]
  75:.\Generated_Source\PSoC5/Button_17_22.c **** 	CyPins_SetPinDriveMode(Button_17_22_4, mode);
  93              		.loc 1 75 0
  94 0034 0132     		adds	r2, r2, #1
  95 0036 1378     		ldrb	r3, [r2]	@ zero_extendqisi2
  96 0038 03F0F103 		and	r3, r3, #241
ARM GAS  C:\Users\Greg\AppData\Local\Temp\ccSZq4Cn.s 			page 4


  97 003c 0343     		orrs	r3, r3, r0
  98 003e 1370     		strb	r3, [r2]
  76:.\Generated_Source\PSoC5/Button_17_22.c **** 	CyPins_SetPinDriveMode(Button_17_22_5, mode);
  99              		.loc 1 76 0
 100 0040 0132     		adds	r2, r2, #1
 101 0042 1378     		ldrb	r3, [r2]	@ zero_extendqisi2
 102 0044 03F0F103 		and	r3, r3, #241
 103 0048 1843     		orrs	r0, r0, r3
 104 004a 1070     		strb	r0, [r2]
 105 004c 7047     		bx	lr
 106              	.L6:
 107 004e 00BF     		.align	2
 108              	.L5:
 109 0050 0A500040 		.word	1073762314
 110              		.cfi_endproc
 111              	.LFE1:
 112              		.size	Button_17_22_SetDriveMode, .-Button_17_22_SetDriveMode
 113              		.section	.text.Button_17_22_Read,"ax",%progbits
 114              		.align	2
 115              		.global	Button_17_22_Read
 116              		.thumb
 117              		.thumb_func
 118              		.type	Button_17_22_Read, %function
 119              	Button_17_22_Read:
 120              	.LFB2:
  77:.\Generated_Source\PSoC5/Button_17_22.c **** }
  78:.\Generated_Source\PSoC5/Button_17_22.c **** 
  79:.\Generated_Source\PSoC5/Button_17_22.c **** 
  80:.\Generated_Source\PSoC5/Button_17_22.c **** /*******************************************************************************
  81:.\Generated_Source\PSoC5/Button_17_22.c **** * Function Name: Button_17_22_Read
  82:.\Generated_Source\PSoC5/Button_17_22.c **** ********************************************************************************
  83:.\Generated_Source\PSoC5/Button_17_22.c **** *
  84:.\Generated_Source\PSoC5/Button_17_22.c **** * Summary:
  85:.\Generated_Source\PSoC5/Button_17_22.c **** *  Read the current value on the pins of the Digital Port in right justified 
  86:.\Generated_Source\PSoC5/Button_17_22.c **** *  form.
  87:.\Generated_Source\PSoC5/Button_17_22.c **** *
  88:.\Generated_Source\PSoC5/Button_17_22.c **** * Parameters:  
  89:.\Generated_Source\PSoC5/Button_17_22.c **** *  None
  90:.\Generated_Source\PSoC5/Button_17_22.c **** *
  91:.\Generated_Source\PSoC5/Button_17_22.c **** * Return: 
  92:.\Generated_Source\PSoC5/Button_17_22.c **** *  Returns the current value of the Digital Port as a right justified number
  93:.\Generated_Source\PSoC5/Button_17_22.c **** *  
  94:.\Generated_Source\PSoC5/Button_17_22.c **** * Note:
  95:.\Generated_Source\PSoC5/Button_17_22.c **** *  Macro Button_17_22_ReadPS calls this function. 
  96:.\Generated_Source\PSoC5/Button_17_22.c **** *  
  97:.\Generated_Source\PSoC5/Button_17_22.c **** *******************************************************************************/
  98:.\Generated_Source\PSoC5/Button_17_22.c **** uint8 Button_17_22_Read(void) 
  99:.\Generated_Source\PSoC5/Button_17_22.c **** {
 121              		.loc 1 99 0
 122              		.cfi_startproc
 123              		@ args = 0, pretend = 0, frame = 0
 124              		@ frame_needed = 0, uses_anonymous_args = 0
 125              		@ link register save eliminated.
 100:.\Generated_Source\PSoC5/Button_17_22.c ****     return (Button_17_22_PS & Button_17_22_MASK) >> Button_17_22_SHIFT;
 126              		.loc 1 100 0
 127 0000 014B     		ldr	r3, .L8
 128 0002 1878     		ldrb	r0, [r3]	@ zero_extendqisi2
ARM GAS  C:\Users\Greg\AppData\Local\Temp\ccSZq4Cn.s 			page 5


 101:.\Generated_Source\PSoC5/Button_17_22.c **** }
 129              		.loc 1 101 0
 130 0004 8008     		lsrs	r0, r0, #2
 131 0006 7047     		bx	lr
 132              	.L9:
 133              		.align	2
 134              	.L8:
 135 0008 11510040 		.word	1073762577
 136              		.cfi_endproc
 137              	.LFE2:
 138              		.size	Button_17_22_Read, .-Button_17_22_Read
 139              		.section	.text.Button_17_22_ReadDataReg,"ax",%progbits
 140              		.align	2
 141              		.global	Button_17_22_ReadDataReg
 142              		.thumb
 143              		.thumb_func
 144              		.type	Button_17_22_ReadDataReg, %function
 145              	Button_17_22_ReadDataReg:
 146              	.LFB3:
 102:.\Generated_Source\PSoC5/Button_17_22.c **** 
 103:.\Generated_Source\PSoC5/Button_17_22.c **** 
 104:.\Generated_Source\PSoC5/Button_17_22.c **** /*******************************************************************************
 105:.\Generated_Source\PSoC5/Button_17_22.c **** * Function Name: Button_17_22_ReadDataReg
 106:.\Generated_Source\PSoC5/Button_17_22.c **** ********************************************************************************
 107:.\Generated_Source\PSoC5/Button_17_22.c **** *
 108:.\Generated_Source\PSoC5/Button_17_22.c **** * Summary:
 109:.\Generated_Source\PSoC5/Button_17_22.c **** *  Read the current value assigned to a Digital Port's data output register
 110:.\Generated_Source\PSoC5/Button_17_22.c **** *
 111:.\Generated_Source\PSoC5/Button_17_22.c **** * Parameters:  
 112:.\Generated_Source\PSoC5/Button_17_22.c **** *  None 
 113:.\Generated_Source\PSoC5/Button_17_22.c **** *
 114:.\Generated_Source\PSoC5/Button_17_22.c **** * Return: 
 115:.\Generated_Source\PSoC5/Button_17_22.c **** *  Returns the current value assigned to the Digital Port's data output register
 116:.\Generated_Source\PSoC5/Button_17_22.c **** *  
 117:.\Generated_Source\PSoC5/Button_17_22.c **** *******************************************************************************/
 118:.\Generated_Source\PSoC5/Button_17_22.c **** uint8 Button_17_22_ReadDataReg(void) 
 119:.\Generated_Source\PSoC5/Button_17_22.c **** {
 147              		.loc 1 119 0
 148              		.cfi_startproc
 149              		@ args = 0, pretend = 0, frame = 0
 150              		@ frame_needed = 0, uses_anonymous_args = 0
 151              		@ link register save eliminated.
 120:.\Generated_Source\PSoC5/Button_17_22.c ****     return (Button_17_22_DR & Button_17_22_MASK) >> Button_17_22_SHIFT;
 152              		.loc 1 120 0
 153 0000 014B     		ldr	r3, .L11
 154 0002 1878     		ldrb	r0, [r3]	@ zero_extendqisi2
 121:.\Generated_Source\PSoC5/Button_17_22.c **** }
 155              		.loc 1 121 0
 156 0004 8008     		lsrs	r0, r0, #2
 157 0006 7047     		bx	lr
 158              	.L12:
 159              		.align	2
 160              	.L11:
 161 0008 10510040 		.word	1073762576
 162              		.cfi_endproc
 163              	.LFE3:
 164              		.size	Button_17_22_ReadDataReg, .-Button_17_22_ReadDataReg
ARM GAS  C:\Users\Greg\AppData\Local\Temp\ccSZq4Cn.s 			page 6


 165              		.text
 166              	.Letext0:
 167              		.file 2 ".\\Generated_Source\\PSoC5\\cytypes.h"