ARM GAS  C:\Users\Alex\AppData\Local\Temp\ccZN6pOG.s 			page 1


   1              		.syntax unified
   2              		.cpu cortex-m3
   3              		.fpu softvfp
   4              		.eabi_attribute 20, 1
   5              		.eabi_attribute 21, 1
   6              		.eabi_attribute 23, 3
   7              		.eabi_attribute 24, 1
   8              		.eabi_attribute 25, 1
   9              		.eabi_attribute 26, 1
  10              		.eabi_attribute 30, 1
  11              		.eabi_attribute 34, 1
  12              		.eabi_attribute 18, 4
  13              		.thumb
  14              		.syntax unified
  15              		.file	"main.c"
  16              		.text
  17              	.Ltext0:
  18              		.cfi_sections	.debug_frame
  19              		.section	.text.StartUp,"ax",%progbits
  20              		.align	2
  21              		.global	StartUp
  22              		.thumb
  23              		.thumb_func
  24              		.type	StartUp, %function
  25              	StartUp:
  26              	.LFB65:
  27              		.file 1 "main.c"
   1:main.c        **** /******************************************************************************
   2:main.c        **** This program is free software; you can redistribute it and/or
   3:main.c        **** modify it under the terms of the GNU General Public License as
   4:main.c        **** published by the Free Software Foundation; either version 3 of
   5:main.c        **** the License, or (at your option) any later verison.
   6:main.c        **** 
   7:main.c        **** This program is distributed in the hope that it will be useful, but
   8:main.c        **** WITHOUT ANY WARRANTY; without even the implied warranty of
   9:main.c        **** MECHANTABILITY or FITNESS FOR A PARTICULAR PURPOSE.  See
  10:main.c        **** the GNU General Public License for more details.
  11:main.c        **** 
  12:main.c        **** You should have received a copy of the GNU General Public License
  13:main.c        **** along with this program; if not, write to the Free Software
  14:main.c        **** Foundation, Inc., 51 Franklin St, Fifth Floor, Boston, MA 02110-1301
  15:main.c        **** USA
  16:main.c        **** ***************************************************************************** */
  17:main.c        **** 
  18:main.c        **** /*****************************************************************************
  19:main.c        **** *  Project Name: CyController1
  20:main.c        **** *  Project Revision: 1.00
  21:main.c        **** *  Software Version: PSoC Creator 3.2 SP1
  22:main.c        **** *  Device Tested: CY8C5888LTI-LP097
  23:main.c        **** *  Compilers Tested: ARM GCC
  24:main.c        **** *  Related Hardware: CY8CKIT-059
  25:main.c        **** ***************************************************************************** */
  26:main.c        **** /* Project Description:
  27:main.c        ****  * This project will create a simple USB HID joystick for FRC. It has
  28:main.c        ****  * 8 analog inputs
  29:main.c        ****  * 22 digital inputs for buttons
  30:main.c        ****  * 12 digital indicator outputs
ARM GAS  C:\Users\Alex\AppData\Local\Temp\ccZN6pOG.s 			page 2


  31:main.c        **** ***************************************************************************** */
  32:main.c        **** 
  33:main.c        **** #ifndef TRUE
  34:main.c        ****     #define TRUE 1u
  35:main.c        **** #endif
  36:main.c        **** #ifndef FALSE
  37:main.c        ****     #define FALSE 0u
  38:main.c        **** #endif
  39:main.c        **** 
  40:main.c        **** //Use this define statement to enable the UART debug interface
  41:main.c        **** #define DEBUG_ENABLE TRUE
  42:main.c        **** 
  43:main.c        **** #include <project.h>
  44:main.c        **** #include <stdio.h>
  45:main.c        **** #include "uart_handler.h"
  46:main.c        **** 
  47:main.c        **** /* 8 bytes for analog axis data */
  48:main.c        **** #define ANALOG_SIZE 8
  49:main.c        **** /* 3 bytes for 22 button inputs */
  50:main.c        **** #define BUTTON_SIZE 3
  51:main.c        **** /* 2 bytes for 12 output indicators such as LEDs */
  52:main.c        **** #define OUTPUT_SIZE 2
  53:main.c        **** 
  54:main.c        **** /* Endpoint 1 is IN (analog and buttons) */
  55:main.c        **** #define IN_EP  1
  56:main.c        **** /* Endpiont 2 is OUT (indicators) */
  57:main.c        **** #define OUT_EP 2
  58:main.c        **** 
  59:main.c        **** void StartUp (void); 		/* Function prototype for component startup API */
  60:main.c        **** void ReadAnalog (void);     /* Function prototype for reading and altering data for joystick inform
  61:main.c        **** void ReadButtons (void);    /* Function prototype for reading and altering data for digital button 
  62:main.c        **** void SetOutputs (void);     /* Prototype for driving digital outputs */
  63:main.c        **** 
  64:main.c        **** static uint16 AnalogRaw[ANALOG_SIZE];   /* Raw ADC measurements */
  65:main.c        **** static int16  AnalogData[ANALOG_SIZE];   /* Scaled ADC measurements */
  66:main.c        **** static int8 USB_Input_Data[ANALOG_SIZE + BUTTON_SIZE]; /* USB data to send to the PC */
  67:main.c        **** static uint8 USB_Output_Data[OUTPUT_SIZE]; /* USB data received from the PC */
  68:main.c        **** 
  69:main.c        **** int main()
  70:main.c        **** {    
  71:main.c        ****     uint16 outCount;
  72:main.c        ****     uint16_t loop_index;
  73:main.c        ****     
  74:main.c        ****     StartUp(); 	/* Calls the proper start API for all the components */
  75:main.c        ****     DEBUG_UART_Start();    
  76:main.c        **** 	
  77:main.c        **** 	for(;;)
  78:main.c        ****     {
  79:main.c        **** 
  80:main.c        ****         
  81:main.c        ****     	while(!USBFS_1_bGetEPAckState(IN_EP)); 	/* Wait for ACK before loading data */
  82:main.c        ****         
  83:main.c        **** 		ReadAnalog();	/* Calls function to read analog inputs */
  84:main.c        ****         ReadButtons();	/* Calls function to monitor button presses */
  85:main.c        ****         
  86:main.c        ****         /*Check to see if the IN Endpoint is empty. If so, load it with Input data to be tranfered 
  87:main.c        ****         if(USBFS_1_GetEPState(IN_EP) == USBFS_1_IN_BUFFER_EMPTY)
ARM GAS  C:\Users\Alex\AppData\Local\Temp\ccZN6pOG.s 			page 3


  88:main.c        ****         {
  89:main.c        ****             //UART Debug interface will stream out the contents of the USB report
  90:main.c        ****             #if(DEBUG_ENABLE == TRUE)
  91:main.c        ****             //Transmit USB_Input_Data over debug
  92:main.c        ****             for(loop_index = 0; loop_index < sizeof(USB_Input_Data); loop_index++)
  93:main.c        ****             {
  94:main.c        ****                 uart_put_hex_8bit(USB_Input_Data[loop_index]);
  95:main.c        ****                 debug_putc(0x09);
  96:main.c        ****             }
  97:main.c        ****             debug_putc(0x0A);
  98:main.c        ****             debug_putc(0x0D);
  99:main.c        ****             #endif
 100:main.c        ****             
 101:main.c        **** 		    /* Load latest analog and button data into the IN EP and send */
 102:main.c        ****             USBFS_1_LoadInEP(IN_EP, (uint8 *)USB_Input_Data, sizeof(USB_Input_Data));   
 103:main.c        ****         }
 104:main.c        ****         
 105:main.c        ****         /* Check to see if the OUT Endpoint is full from a recieved transaction. */
 106:main.c        ****         if(USBFS_1_GetEPState(OUT_EP) == USBFS_1_OUT_BUFFER_FULL)
 107:main.c        ****         {
 108:main.c        ****             /* Get the number of bytes recieved */
 109:main.c        ****             outCount = USBFS_1_GetEPCount(OUT_EP);
 110:main.c        ****             /* Read the OUT endpoint and store data in OUT_Data_Buffer */
 111:main.c        ****             USBFS_1_ReadOutEP(OUT_EP, USB_Output_Data, outCount);
 112:main.c        ****             /* Re-enable OUT endpoint */
 113:main.c        ****             USBFS_1_EnableOutEP(OUT_EP);
 114:main.c        ****         }
 115:main.c        ****         
 116:main.c        ****         SetOutputs();   /* Set output values based on the data received from the out EP */
 117:main.c        ****     }
 118:main.c        **** }
 119:main.c        **** 
 120:main.c        **** void StartUp (void)
 121:main.c        **** {
  28              		.loc 1 121 0
  29              		.cfi_startproc
  30              		@ args = 0, pretend = 0, frame = 0
  31              		@ frame_needed = 0, uses_anonymous_args = 0
  32 0000 08B5     		push	{r3, lr}
  33              		.cfi_def_cfa_offset 8
  34              		.cfi_offset 3, -8
  35              		.cfi_offset 14, -4
  36              	.LVL0:
 122:main.c        **** 	uint8 i;
 123:main.c        ****     
 124:main.c        ****     /* Intialize USB Input EP data array */
 125:main.c        ****     for (i=0; i < sizeof(USB_Input_Data); i++)
  37              		.loc 1 125 0
  38 0002 0023     		movs	r3, #0
  39 0004 04E0     		b	.L2
  40              	.LVL1:
  41              	.L3:
 126:main.c        ****     {
 127:main.c        ****         USB_Input_Data[i] = 0;
  42              		.loc 1 127 0 discriminator 3
  43 0006 0021     		movs	r1, #0
  44 0008 124A     		ldr	r2, .L8
ARM GAS  C:\Users\Alex\AppData\Local\Temp\ccZN6pOG.s 			page 4


  45 000a D154     		strb	r1, [r2, r3]
 125:main.c        ****     {
  46              		.loc 1 125 0 discriminator 3
  47 000c 0133     		adds	r3, r3, #1
  48              	.LVL2:
  49 000e DBB2     		uxtb	r3, r3
  50              	.LVL3:
  51              	.L2:
 125:main.c        ****     {
  52              		.loc 1 125 0 is_stmt 0 discriminator 1
  53 0010 0A2B     		cmp	r3, #10
  54 0012 F8D9     		bls	.L3
  55 0014 0023     		movs	r3, #0
  56              	.LVL4:
  57 0016 05E0     		b	.L4
  58              	.LVL5:
  59              	.L5:
 128:main.c        ****     }
 129:main.c        ****     /* Intialize USB Output EP data array */
 130:main.c        ****     for (i=0; i < sizeof(USB_Output_Data); i++)
 131:main.c        ****     {
 132:main.c        ****         USB_Output_Data[i] = 0;
  60              		.loc 1 132 0 is_stmt 1 discriminator 3
  61 0018 0E4A     		ldr	r2, .L8
  62 001a 1A44     		add	r2, r2, r3
  63 001c 0021     		movs	r1, #0
  64 001e 1173     		strb	r1, [r2, #12]
 130:main.c        ****     {
  65              		.loc 1 130 0 discriminator 3
  66 0020 0133     		adds	r3, r3, #1
  67              	.LVL6:
  68 0022 DBB2     		uxtb	r3, r3
  69              	.LVL7:
  70              	.L4:
 130:main.c        ****     {
  71              		.loc 1 130 0 is_stmt 0 discriminator 1
  72 0024 012B     		cmp	r3, #1
  73 0026 F7D9     		bls	.L5
 133:main.c        ****     }
 134:main.c        ****     
 135:main.c        ****     CYGlobalIntEnable;           					/* Enable Global interrupts */
  74              		.loc 1 135 0 is_stmt 1
  75              		.syntax unified
  76              	@ 135 "main.c" 1
  77 0028 62B6     		CPSIE   i
  78              	@ 0 "" 2
 136:main.c        ****     ADC_Start();        					        /* Initialize ADC */
  79              		.loc 1 136 0
  80              		.thumb
  81              		.syntax unified
  82 002a FFF7FEFF 		bl	ADC_Start
  83              	.LVL8:
 137:main.c        **** 	ADC_StartConvert();								/* End ADC conversion */  
  84              		.loc 1 137 0
  85 002e FFF7FEFF 		bl	ADC_StartConvert
  86              	.LVL9:
 138:main.c        **** 
ARM GAS  C:\Users\Alex\AppData\Local\Temp\ccZN6pOG.s 			page 5


 139:main.c        **** 	USBFS_1_Start(0, USBFS_1_DWR_VDDD_OPERATION);	/* Start USBFS operation/device 0 and with 5V operat
  87              		.loc 1 139 0
  88 0032 0221     		movs	r1, #2
  89 0034 0020     		movs	r0, #0
  90 0036 FFF7FEFF 		bl	USBFS_1_Start
  91              	.LVL10:
  92              	.L6:
 140:main.c        **** 	while(!USBFS_1_bGetConfiguration())
  93              		.loc 1 140 0 discriminator 1
  94 003a FFF7FEFF 		bl	USBFS_1_GetConfiguration
  95              	.LVL11:
  96 003e 0028     		cmp	r0, #0
  97 0040 FBD0     		beq	.L6
 141:main.c        ****     {
 142:main.c        ****         /* Wait for Device to enumerate */
 143:main.c        ****     }			
 144:main.c        ****     
 145:main.c        ****     USBFS_1_LoadInEP(IN_EP, (uint8 *)USB_Input_Data, sizeof(USB_Input_Data)); /* Loads an inital va
  98              		.loc 1 145 0
  99 0042 0B22     		movs	r2, #11
 100 0044 0349     		ldr	r1, .L8
 101 0046 0120     		movs	r0, #1
 102 0048 FFF7FEFF 		bl	USBFS_1_LoadInEP
 103              	.LVL12:
 146:main.c        ****     USBFS_1_EnableOutEP(OUT_EP); /* Enable the output endpoint */
 104              		.loc 1 146 0
 105 004c 0220     		movs	r0, #2
 106 004e FFF7FEFF 		bl	USBFS_1_EnableOutEP
 107              	.LVL13:
 108 0052 08BD     		pop	{r3, pc}
 109              	.L9:
 110              		.align	2
 111              	.L8:
 112 0054 00000000 		.word	.LANCHOR0
 113              		.cfi_endproc
 114              	.LFE65:
 115              		.size	StartUp, .-StartUp
 116              		.section	.text.ReadAnalog,"ax",%progbits
 117              		.align	2
 118              		.global	ReadAnalog
 119              		.thumb
 120              		.thumb_func
 121              		.type	ReadAnalog, %function
 122              	ReadAnalog:
 123              	.LFB66:
 147:main.c        **** }
 148:main.c        **** 
 149:main.c        **** void ReadAnalog (void)
 150:main.c        **** {
 124              		.loc 1 150 0
 125              		.cfi_startproc
 126              		@ args = 0, pretend = 0, frame = 0
 127              		@ frame_needed = 0, uses_anonymous_args = 0
 128 0000 38B5     		push	{r3, r4, r5, lr}
 129              		.cfi_def_cfa_offset 16
 130              		.cfi_offset 3, -16
 131              		.cfi_offset 4, -12
ARM GAS  C:\Users\Alex\AppData\Local\Temp\ccZN6pOG.s 			page 6


 132              		.cfi_offset 5, -8
 133              		.cfi_offset 14, -4
 134              	.LVL14:
 151:main.c        **** 	uint8 i;
 152:main.c        ****     
 153:main.c        ****     for(i=0; i<ANALOG_SIZE; i++)
 135              		.loc 1 153 0
 136 0002 0024     		movs	r4, #0
 137 0004 28E0     		b	.L11
 138              	.LVL15:
 139              	.L14:
 154:main.c        ****     {
 155:main.c        ****         AnalogRaw[i] = ADC_GetResult16(i) >> 4;     /* Get ADC reading and keep just the 8 upper bi
 140              		.loc 1 155 0
 141 0006 2546     		mov	r5, r4
 142 0008 2046     		mov	r0, r4
 143 000a FFF7FEFF 		bl	ADC_GetResult16
 144              	.LVL16:
 145 000e C0F30F10 		ubfx	r0, r0, #4, #16
 156:main.c        ****         AnalogData[i] = AnalogRaw[i] - 127;         /* Adjust axis to center the reading */
 146              		.loc 1 156 0
 147 0012 7F38     		subs	r0, r0, #127
 148 0014 00B2     		sxth	r0, r0
 149 0016 124B     		ldr	r3, .L16
 150 0018 03EB4403 		add	r3, r3, r4, lsl #1
 151 001c 1882     		strh	r0, [r3, #16]	@ movhi
 157:main.c        ****         if(AnalogData[i] > 127)
 152              		.loc 1 157 0
 153 001e 7F28     		cmp	r0, #127
 154 0020 04DD     		ble	.L12
 158:main.c        ****         {
 159:main.c        ****             AnalogData[i] = 127;
 155              		.loc 1 159 0
 156 0022 0F4B     		ldr	r3, .L16
 157 0024 03EB4403 		add	r3, r3, r4, lsl #1
 158 0028 7F22     		movs	r2, #127
 159 002a 1A82     		strh	r2, [r3, #16]	@ movhi
 160              	.L12:
 160:main.c        ****         }
 161:main.c        ****         if(AnalogData[i] < -127)
 161              		.loc 1 161 0
 162 002c 0C4B     		ldr	r3, .L16
 163 002e 03EB4503 		add	r3, r3, r5, lsl #1
 164 0032 B3F91030 		ldrsh	r3, [r3, #16]
 165 0036 13F17F0F 		cmn	r3, #127
 166 003a 05DA     		bge	.L13
 162:main.c        ****         {
 163:main.c        ****             AnalogData[i] = -127;
 167              		.loc 1 163 0
 168 003c 084B     		ldr	r3, .L16
 169 003e 03EB4503 		add	r3, r3, r5, lsl #1
 170 0042 4FF68172 		movw	r2, #65409
 171 0046 1A82     		strh	r2, [r3, #16]	@ movhi
 172              	.L13:
 164:main.c        ****         }
 165:main.c        ****         
 166:main.c        ****         /* Move analog data to USB array to prepare for sending */
ARM GAS  C:\Users\Alex\AppData\Local\Temp\ccZN6pOG.s 			page 7


 167:main.c        ****         USB_Input_Data[i] = AnalogData[i];
 173              		.loc 1 167 0 discriminator 2
 174 0048 054B     		ldr	r3, .L16
 175 004a 03EB4502 		add	r2, r3, r5, lsl #1
 176 004e B2F91020 		ldrsh	r2, [r2, #16]
 177 0052 5A55     		strb	r2, [r3, r5]
 153:main.c        ****     {
 178              		.loc 1 153 0 discriminator 2
 179 0054 0134     		adds	r4, r4, #1
 180              	.LVL17:
 181 0056 E4B2     		uxtb	r4, r4
 182              	.LVL18:
 183              	.L11:
 153:main.c        ****     {
 184              		.loc 1 153 0 is_stmt 0 discriminator 1
 185 0058 072C     		cmp	r4, #7
 186 005a D4D9     		bls	.L14
 168:main.c        ****     }
 169:main.c        **** }
 187              		.loc 1 169 0 is_stmt 1
 188 005c 38BD     		pop	{r3, r4, r5, pc}
 189              	.LVL19:
 190              	.L17:
 191 005e 00BF     		.align	2
 192              	.L16:
 193 0060 00000000 		.word	.LANCHOR0
 194              		.cfi_endproc
 195              	.LFE66:
 196              		.size	ReadAnalog, .-ReadAnalog
 197              		.section	.text.ReadButtons,"ax",%progbits
 198              		.align	2
 199              		.global	ReadButtons
 200              		.thumb
 201              		.thumb_func
 202              		.type	ReadButtons, %function
 203              	ReadButtons:
 204              	.LFB67:
 170:main.c        **** 
 171:main.c        **** void ReadButtons (void)
 172:main.c        **** {
 205              		.loc 1 172 0
 206              		.cfi_startproc
 207              		@ args = 0, pretend = 0, frame = 0
 208              		@ frame_needed = 0, uses_anonymous_args = 0
 209 0000 10B5     		push	{r4, lr}
 210              		.cfi_def_cfa_offset 8
 211              		.cfi_offset 4, -8
 212              		.cfi_offset 14, -4
 173:main.c        **** 	/* Read button values from status registers into USB array to prepare for sending */
 174:main.c        ****     USB_Input_Data[ANALOG_SIZE]   = ButtonReg1_Read(); /* First button byte is after the last analo
 213              		.loc 1 174 0
 214 0002 FFF7FEFF 		bl	ButtonReg1_Read
 215              	.LVL20:
 216 0006 044C     		ldr	r4, .L20
 217 0008 2072     		strb	r0, [r4, #8]
 175:main.c        ****     USB_Input_Data[ANALOG_SIZE+1] = ButtonReg2_Read();
 218              		.loc 1 175 0
ARM GAS  C:\Users\Alex\AppData\Local\Temp\ccZN6pOG.s 			page 8


 219 000a FFF7FEFF 		bl	ButtonReg2_Read
 220              	.LVL21:
 221 000e 6072     		strb	r0, [r4, #9]
 176:main.c        ****     USB_Input_Data[ANALOG_SIZE+2] = ButtonReg3_Read();
 222              		.loc 1 176 0
 223 0010 FFF7FEFF 		bl	ButtonReg3_Read
 224              	.LVL22:
 225 0014 A072     		strb	r0, [r4, #10]
 226 0016 10BD     		pop	{r4, pc}
 227              	.L21:
 228              		.align	2
 229              	.L20:
 230 0018 00000000 		.word	.LANCHOR0
 231              		.cfi_endproc
 232              	.LFE67:
 233              		.size	ReadButtons, .-ReadButtons
 234              		.section	.text.SetOutputs,"ax",%progbits
 235              		.align	2
 236              		.global	SetOutputs
 237              		.thumb
 238              		.thumb_func
 239              		.type	SetOutputs, %function
 240              	SetOutputs:
 241              	.LFB68:
 177:main.c        **** }
 178:main.c        **** 
 179:main.c        **** void SetOutputs (void)
 180:main.c        **** {
 242              		.loc 1 180 0
 243              		.cfi_startproc
 244              		@ args = 0, pretend = 0, frame = 0
 245              		@ frame_needed = 0, uses_anonymous_args = 0
 246 0000 10B5     		push	{r4, lr}
 247              		.cfi_def_cfa_offset 8
 248              		.cfi_offset 4, -8
 249              		.cfi_offset 14, -4
 181:main.c        ****     /* Write data received from USB to the output control registers */   
 182:main.c        ****     OutputReg1_Write(USB_Output_Data[0]);
 250              		.loc 1 182 0
 251 0002 044C     		ldr	r4, .L24
 252 0004 207B     		ldrb	r0, [r4, #12]	@ zero_extendqisi2
 253 0006 FFF7FEFF 		bl	OutputReg1_Write
 254              	.LVL23:
 183:main.c        ****     OutputReg2_Write(USB_Output_Data[1]);
 255              		.loc 1 183 0
 256 000a 607B     		ldrb	r0, [r4, #13]	@ zero_extendqisi2
 257 000c FFF7FEFF 		bl	OutputReg2_Write
 258              	.LVL24:
 259 0010 10BD     		pop	{r4, pc}
 260              	.L25:
 261 0012 00BF     		.align	2
 262              	.L24:
 263 0014 00000000 		.word	.LANCHOR0
 264              		.cfi_endproc
 265              	.LFE68:
 266              		.size	SetOutputs, .-SetOutputs
 267              		.section	.text.main,"ax",%progbits
ARM GAS  C:\Users\Alex\AppData\Local\Temp\ccZN6pOG.s 			page 9


 268              		.align	2
 269              		.global	main
 270              		.thumb
 271              		.thumb_func
 272              		.type	main, %function
 273              	main:
 274              	.LFB64:
  70:main.c        ****     uint16 outCount;
 275              		.loc 1 70 0
 276              		.cfi_startproc
 277              		@ args = 0, pretend = 0, frame = 0
 278              		@ frame_needed = 0, uses_anonymous_args = 0
 279 0000 10B5     		push	{r4, lr}
 280              		.cfi_def_cfa_offset 8
 281              		.cfi_offset 4, -8
 282              		.cfi_offset 14, -4
  74:main.c        ****     DEBUG_UART_Start();    
 283              		.loc 1 74 0
 284 0002 FFF7FEFF 		bl	StartUp
 285              	.LVL25:
  75:main.c        **** 	
 286              		.loc 1 75 0
 287 0006 FFF7FEFF 		bl	DEBUG_UART_Start
 288              	.LVL26:
 289              	.L27:
  81:main.c        ****         
 290              		.loc 1 81 0 discriminator 1
 291 000a 0120     		movs	r0, #1
 292 000c FFF7FEFF 		bl	USBFS_1_GetEPAckState
 293              	.LVL27:
 294 0010 0028     		cmp	r0, #0
 295 0012 FAD0     		beq	.L27
  83:main.c        ****         ReadButtons();	/* Calls function to monitor button presses */
 296              		.loc 1 83 0
 297 0014 FFF7FEFF 		bl	ReadAnalog
 298              	.LVL28:
  84:main.c        ****         
 299              		.loc 1 84 0
 300 0018 FFF7FEFF 		bl	ReadButtons
 301              	.LVL29:
  87:main.c        ****         {
 302              		.loc 1 87 0
 303 001c 0120     		movs	r0, #1
 304 001e FFF7FEFF 		bl	USBFS_1_GetEPState
 305              	.LVL30:
 306 0022 0128     		cmp	r0, #1
 307 0024 18D1     		bne	.L29
 308 0026 09E0     		b	.L33
 309              	.LVL31:
 310              	.L30:
  94:main.c        ****                 debug_putc(0x09);
 311              		.loc 1 94 0 discriminator 3
 312 0028 154B     		ldr	r3, .L35
 313 002a 185D     		ldrb	r0, [r3, r4]	@ zero_extendqisi2
 314 002c FFF7FEFF 		bl	uart_put_hex_8bit
 315              	.LVL32:
  95:main.c        ****             }
ARM GAS  C:\Users\Alex\AppData\Local\Temp\ccZN6pOG.s 			page 10


 316              		.loc 1 95 0 discriminator 3
 317 0030 0920     		movs	r0, #9
 318 0032 FFF7FEFF 		bl	DEBUG_UART_PutChar
 319              	.LVL33:
  92:main.c        ****             {
 320              		.loc 1 92 0 discriminator 3
 321 0036 0134     		adds	r4, r4, #1
 322              	.LVL34:
 323 0038 A4B2     		uxth	r4, r4
 324              	.LVL35:
 325 003a 00E0     		b	.L28
 326              	.LVL36:
 327              	.L33:
 328 003c 0024     		movs	r4, #0
 329              	.L28:
 330              	.LVL37:
  92:main.c        ****             {
 331              		.loc 1 92 0 is_stmt 0 discriminator 1
 332 003e 0A2C     		cmp	r4, #10
 333 0040 F2D9     		bls	.L30
  97:main.c        ****             debug_putc(0x0D);
 334              		.loc 1 97 0 is_stmt 1
 335 0042 0A20     		movs	r0, #10
 336 0044 FFF7FEFF 		bl	DEBUG_UART_PutChar
 337              	.LVL38:
  98:main.c        ****             #endif
 338              		.loc 1 98 0
 339 0048 0D20     		movs	r0, #13
 340 004a FFF7FEFF 		bl	DEBUG_UART_PutChar
 341              	.LVL39:
 102:main.c        ****         }
 342              		.loc 1 102 0
 343 004e 0B22     		movs	r2, #11
 344 0050 0B49     		ldr	r1, .L35
 345 0052 0120     		movs	r0, #1
 346 0054 FFF7FEFF 		bl	USBFS_1_LoadInEP
 347              	.LVL40:
 348              	.L29:
 106:main.c        ****         {
 349              		.loc 1 106 0
 350 0058 0220     		movs	r0, #2
 351 005a FFF7FEFF 		bl	USBFS_1_GetEPState
 352              	.LVL41:
 353 005e 0128     		cmp	r0, #1
 354 0060 0AD1     		bne	.L31
 109:main.c        ****             /* Read the OUT endpoint and store data in OUT_Data_Buffer */
 355              		.loc 1 109 0
 356 0062 0220     		movs	r0, #2
 357 0064 FFF7FEFF 		bl	USBFS_1_GetEPCount
 358              	.LVL42:
 111:main.c        ****             /* Re-enable OUT endpoint */
 359              		.loc 1 111 0
 360 0068 0246     		mov	r2, r0
 361 006a 0649     		ldr	r1, .L35+4
 362 006c 0220     		movs	r0, #2
 363              	.LVL43:
 364 006e FFF7FEFF 		bl	USBFS_1_ReadOutEP
ARM GAS  C:\Users\Alex\AppData\Local\Temp\ccZN6pOG.s 			page 11


 365              	.LVL44:
 113:main.c        ****         }
 366              		.loc 1 113 0
 367 0072 0220     		movs	r0, #2
 368 0074 FFF7FEFF 		bl	USBFS_1_EnableOutEP
 369              	.LVL45:
 370              	.L31:
 116:main.c        ****     }
 371              		.loc 1 116 0
 372 0078 FFF7FEFF 		bl	SetOutputs
 373              	.LVL46:
 117:main.c        **** }
 374              		.loc 1 117 0
 375 007c C5E7     		b	.L27
 376              	.L36:
 377 007e 00BF     		.align	2
 378              	.L35:
 379 0080 00000000 		.word	.LANCHOR0
 380 0084 0C000000 		.word	.LANCHOR0+12
 381              		.cfi_endproc
 382              	.LFE64:
 383              		.size	main, .-main
 384              		.bss
 385              		.align	2
 386              		.set	.LANCHOR0,. + 0
 387              		.type	USB_Input_Data, %object
 388              		.size	USB_Input_Data, 11
 389              	USB_Input_Data:
 390 0000 00000000 		.space	11
 390      00000000 
 390      000000
 391 000b 00       		.space	1
 392              		.type	USB_Output_Data, %object
 393              		.size	USB_Output_Data, 2
 394              	USB_Output_Data:
 395 000c 0000     		.space	2
 396 000e 0000     		.space	2
 397              		.type	AnalogData, %object
 398              		.size	AnalogData, 16
 399              	AnalogData:
 400 0010 00000000 		.space	16
 400      00000000 
 400      00000000 
 400      00000000 
 401              		.text
 402              	.Letext0:
 403              		.file 2 "c:\\program files (x86)\\cypress\\psoc creator\\4.1\\psoc creator\\import\\gnu\\arm\\5.4.
 404              		.file 3 "c:\\program files (x86)\\cypress\\psoc creator\\4.1\\psoc creator\\import\\gnu\\arm\\5.4.
 405              		.file 4 "Generated_Source\\PSoC5/cytypes.h"
 406              		.file 5 "Generated_Source\\PSoC5/ADC.h"
 407              		.file 6 "Generated_Source\\PSoC5/USBFS_1.h"
 408              		.file 7 "Generated_Source\\PSoC5/ButtonReg1.h"
 409              		.file 8 "Generated_Source\\PSoC5/ButtonReg2.h"
 410              		.file 9 "Generated_Source\\PSoC5/ButtonReg3.h"
 411              		.file 10 "Generated_Source\\PSoC5/OutputReg1.h"
 412              		.file 11 "Generated_Source\\PSoC5/OutputReg2.h"
 413              		.file 12 "Generated_Source\\PSoC5/DEBUG_UART.h"
ARM GAS  C:\Users\Alex\AppData\Local\Temp\ccZN6pOG.s 			page 12


 414              		.file 13 "uart_handler.h"
 415              		.file 14 "Generated_Source\\PSoC5/core_cm3.h"