ARM GAS  C:\Users\Alex\AppData\Local\Temp\ccapzahD.s 			page 1


   1              		.syntax unified
   2              		.cpu cortex-m3
   3              		.fpu softvfp
   4              		.eabi_attribute 20, 1
   5              		.eabi_attribute 21, 1
   6              		.eabi_attribute 23, 3
   7              		.eabi_attribute 24, 1
   8              		.eabi_attribute 25, 1
   9              		.eabi_attribute 26, 1
  10              		.eabi_attribute 30, 1
  11              		.eabi_attribute 34, 1
  12              		.eabi_attribute 18, 4
  13              		.thumb
  14              		.syntax unified
  15              		.file	"USBFS_1.c"
  16              		.text
  17              	.Ltext0:
  18              		.cfi_sections	.debug_frame
  19              		.section	.text.USBFS_1_Init,"ax",%progbits
  20              		.align	2
  21              		.global	USBFS_1_Init
  22              		.thumb
  23              		.thumb_func
  24              		.type	USBFS_1_Init, %function
  25              	USBFS_1_Init:
  26              	.LFB1:
  27              		.file 1 "Generated_Source\\PSoC5\\USBFS_1.c"
   1:Generated_Source\PSoC5/USBFS_1.c **** /***************************************************************************//**
   2:Generated_Source\PSoC5/USBFS_1.c **** * \file USBFS_1.c
   3:Generated_Source\PSoC5/USBFS_1.c **** * \version 3.20
   4:Generated_Source\PSoC5/USBFS_1.c **** *
   5:Generated_Source\PSoC5/USBFS_1.c **** * \brief
   6:Generated_Source\PSoC5/USBFS_1.c **** *  This file contains the global USBFS API functions.
   7:Generated_Source\PSoC5/USBFS_1.c **** *
   8:Generated_Source\PSoC5/USBFS_1.c **** * Note:
   9:Generated_Source\PSoC5/USBFS_1.c **** *  Many of the functions use an endpoint number. SRAM arrays are sized with 9
  10:Generated_Source\PSoC5/USBFS_1.c **** *  elements, so they are indexed directly by epNumber.  The SIE and ARB
  11:Generated_Source\PSoC5/USBFS_1.c **** *  registers are indexed by variations of epNumber - 1.
  12:Generated_Source\PSoC5/USBFS_1.c **** *
  13:Generated_Source\PSoC5/USBFS_1.c **** ********************************************************************************
  14:Generated_Source\PSoC5/USBFS_1.c **** * \copyright
  15:Generated_Source\PSoC5/USBFS_1.c **** * Copyright 2008-2016, Cypress Semiconductor Corporation.  All rights reserved.
  16:Generated_Source\PSoC5/USBFS_1.c **** * You may use this file only in accordance with the license, terms, conditions,
  17:Generated_Source\PSoC5/USBFS_1.c **** * disclaimers, and limitations in the end user license agreement accompanying
  18:Generated_Source\PSoC5/USBFS_1.c **** * the software package with which this file was provided.
  19:Generated_Source\PSoC5/USBFS_1.c **** *******************************************************************************/
  20:Generated_Source\PSoC5/USBFS_1.c **** 
  21:Generated_Source\PSoC5/USBFS_1.c **** #include "USBFS_1_pvt.h"
  22:Generated_Source\PSoC5/USBFS_1.c **** #include "USBFS_1_cydmac.h"
  23:Generated_Source\PSoC5/USBFS_1.c **** #include "USBFS_1_hid.h"
  24:Generated_Source\PSoC5/USBFS_1.c **** #include "USBFS_1_Dp.h"
  25:Generated_Source\PSoC5/USBFS_1.c **** 
  26:Generated_Source\PSoC5/USBFS_1.c **** 
  27:Generated_Source\PSoC5/USBFS_1.c **** /***************************************
  28:Generated_Source\PSoC5/USBFS_1.c **** * Global data allocation
  29:Generated_Source\PSoC5/USBFS_1.c **** ***************************************/
  30:Generated_Source\PSoC5/USBFS_1.c **** 
ARM GAS  C:\Users\Alex\AppData\Local\Temp\ccapzahD.s 			page 2


  31:Generated_Source\PSoC5/USBFS_1.c **** /** Indicates whether the USBFS has been initialized. The variable is
  32:Generated_Source\PSoC5/USBFS_1.c **** * initialized to 0 after device reset and set to 1 the first time USBFS_Start()
  33:Generated_Source\PSoC5/USBFS_1.c **** * is called. This allows the Component to restart without reinitialization after
  34:Generated_Source\PSoC5/USBFS_1.c **** * the first call to the USBFS_Start() routine.
  35:Generated_Source\PSoC5/USBFS_1.c **** * If re-initialization of the Component is required, the variable should be set
  36:Generated_Source\PSoC5/USBFS_1.c **** * to 0 before the USBFS_Start() routine is called. Alternatively, the USBFS can
  37:Generated_Source\PSoC5/USBFS_1.c **** * be reinitialized by calling both USBFS_Init() and USBFS_InitComponent()
  38:Generated_Source\PSoC5/USBFS_1.c **** * functions.
  39:Generated_Source\PSoC5/USBFS_1.c **** */
  40:Generated_Source\PSoC5/USBFS_1.c **** uint8 USBFS_1_initVar = 0u;
  41:Generated_Source\PSoC5/USBFS_1.c **** 
  42:Generated_Source\PSoC5/USBFS_1.c **** #if (USBFS_1_EP_MANAGEMENT_DMA)
  43:Generated_Source\PSoC5/USBFS_1.c ****     #if (CY_PSOC4)
  44:Generated_Source\PSoC5/USBFS_1.c ****         static void USBFS_1_InitEpDma(void);
  45:Generated_Source\PSoC5/USBFS_1.c **** 
  46:Generated_Source\PSoC5/USBFS_1.c ****         /* DMA chanels assigend for endpoints. */
  47:Generated_Source\PSoC5/USBFS_1.c ****         const uint8 USBFS_1_DmaChan[USBFS_1_MAX_EP] =
  48:Generated_Source\PSoC5/USBFS_1.c ****         {
  49:Generated_Source\PSoC5/USBFS_1.c ****             0u,
  50:Generated_Source\PSoC5/USBFS_1.c ****             0u,
  51:Generated_Source\PSoC5/USBFS_1.c ****             0u,
  52:Generated_Source\PSoC5/USBFS_1.c ****             0u,
  53:Generated_Source\PSoC5/USBFS_1.c ****             0u,
  54:Generated_Source\PSoC5/USBFS_1.c ****             0u,
  55:Generated_Source\PSoC5/USBFS_1.c ****             0u,
  56:Generated_Source\PSoC5/USBFS_1.c ****             0u,
  57:Generated_Source\PSoC5/USBFS_1.c ****             0u,
  58:Generated_Source\PSoC5/USBFS_1.c ****         };        
  59:Generated_Source\PSoC5/USBFS_1.c ****     #else
  60:Generated_Source\PSoC5/USBFS_1.c ****         /* DMA chanels assigend for endpoints. */
  61:Generated_Source\PSoC5/USBFS_1.c ****         uint8 USBFS_1_DmaChan[USBFS_1_MAX_EP];
  62:Generated_Source\PSoC5/USBFS_1.c ****         
  63:Generated_Source\PSoC5/USBFS_1.c ****         /* DMA TDs require for PSoC 3/5LP operation. */
  64:Generated_Source\PSoC5/USBFS_1.c ****         uint8 USBFS_1_DmaTd[USBFS_1_MAX_EP];
  65:Generated_Source\PSoC5/USBFS_1.c ****     #endif /* (CY_PSOC4) */
  66:Generated_Source\PSoC5/USBFS_1.c **** #endif /* (USBFS_1_EP_MANAGEMENT_DMA) */
  67:Generated_Source\PSoC5/USBFS_1.c **** 
  68:Generated_Source\PSoC5/USBFS_1.c **** #if (USBFS_1_EP_MANAGEMENT_DMA_AUTO)
  69:Generated_Source\PSoC5/USBFS_1.c **** #if (CY_PSOC4)
  70:Generated_Source\PSoC5/USBFS_1.c ****     /* Number of DMA bursts. */
  71:Generated_Source\PSoC5/USBFS_1.c ****     uint8  USBFS_1_DmaEpBurstCnt   [USBFS_1_MAX_EP];
  72:Generated_Source\PSoC5/USBFS_1.c ****     
  73:Generated_Source\PSoC5/USBFS_1.c ****     /* Number of bytes to transfer in last DMA burst. */
  74:Generated_Source\PSoC5/USBFS_1.c ****     uint8  USBFS_1_DmaEpLastBurstEl[USBFS_1_MAX_EP];
  75:Generated_Source\PSoC5/USBFS_1.c **** 
  76:Generated_Source\PSoC5/USBFS_1.c ****     /* Storage for arrays above. */
  77:Generated_Source\PSoC5/USBFS_1.c ****     uint8  USBFS_1_DmaEpBurstCntBackup  [USBFS_1_MAX_EP];
  78:Generated_Source\PSoC5/USBFS_1.c ****     uint32 USBFS_1_DmaEpBufferAddrBackup[USBFS_1_MAX_EP];
  79:Generated_Source\PSoC5/USBFS_1.c ****      
  80:Generated_Source\PSoC5/USBFS_1.c ****     /* DMA trigger mux output for usb.dma_req[0-7]. */
  81:Generated_Source\PSoC5/USBFS_1.c ****     const uint8 USBFS_1_DmaReqOut[USBFS_1_MAX_EP] =
  82:Generated_Source\PSoC5/USBFS_1.c ****     {
  83:Generated_Source\PSoC5/USBFS_1.c ****         0u,
  84:Generated_Source\PSoC5/USBFS_1.c ****         USBFS_1_ep1_dma__TR_OUTPUT,
  85:Generated_Source\PSoC5/USBFS_1.c ****         USBFS_1_ep2_dma__TR_OUTPUT,
  86:Generated_Source\PSoC5/USBFS_1.c ****         0u,
  87:Generated_Source\PSoC5/USBFS_1.c ****         0u,
ARM GAS  C:\Users\Alex\AppData\Local\Temp\ccapzahD.s 			page 3


  88:Generated_Source\PSoC5/USBFS_1.c ****         0u,
  89:Generated_Source\PSoC5/USBFS_1.c ****         0u,
  90:Generated_Source\PSoC5/USBFS_1.c ****         0u,
  91:Generated_Source\PSoC5/USBFS_1.c ****         0u,
  92:Generated_Source\PSoC5/USBFS_1.c ****     };
  93:Generated_Source\PSoC5/USBFS_1.c **** 
  94:Generated_Source\PSoC5/USBFS_1.c ****     /* DMA trigger mux output for usb.dma_burstend[0-7]. */
  95:Generated_Source\PSoC5/USBFS_1.c ****     const uint8 USBFS_1_DmaBurstEndOut[USBFS_1_MAX_EP] =
  96:Generated_Source\PSoC5/USBFS_1.c ****     {
  97:Generated_Source\PSoC5/USBFS_1.c ****         0u,
  98:Generated_Source\PSoC5/USBFS_1.c ****         USBFS_1_BURSTEND_0_TR_OUTPUT,
  99:Generated_Source\PSoC5/USBFS_1.c ****         USBFS_1_BURSTEND_1_TR_OUTPUT,
 100:Generated_Source\PSoC5/USBFS_1.c ****         USBFS_1_BURSTEND_2_TR_OUTPUT,
 101:Generated_Source\PSoC5/USBFS_1.c ****         USBFS_1_BURSTEND_3_TR_OUTPUT,
 102:Generated_Source\PSoC5/USBFS_1.c ****         USBFS_1_BURSTEND_4_TR_OUTPUT,
 103:Generated_Source\PSoC5/USBFS_1.c ****         USBFS_1_BURSTEND_5_TR_OUTPUT,
 104:Generated_Source\PSoC5/USBFS_1.c ****         USBFS_1_BURSTEND_6_TR_OUTPUT,
 105:Generated_Source\PSoC5/USBFS_1.c ****         USBFS_1_BURSTEND_7_TR_OUTPUT
 106:Generated_Source\PSoC5/USBFS_1.c ****     };
 107:Generated_Source\PSoC5/USBFS_1.c ****     
 108:Generated_Source\PSoC5/USBFS_1.c **** #else
 109:Generated_Source\PSoC5/USBFS_1.c ****     #if (USBFS_1_EP_DMA_AUTO_OPT == 0u)
 110:Generated_Source\PSoC5/USBFS_1.c ****         static uint8 clearInDataRdyStatus = USBFS_1_ARB_EPX_CFG_DEFAULT;
 111:Generated_Source\PSoC5/USBFS_1.c ****         uint8 USBFS_1_DmaNextTd[USBFS_1_MAX_EP];
 112:Generated_Source\PSoC5/USBFS_1.c ****         const uint8 USBFS_1_epX_TD_TERMOUT_EN[USBFS_1_MAX_EP] =
 113:Generated_Source\PSoC5/USBFS_1.c ****         {
 114:Generated_Source\PSoC5/USBFS_1.c ****             0u,
 115:Generated_Source\PSoC5/USBFS_1.c ****             0u,
 116:Generated_Source\PSoC5/USBFS_1.c ****             0u,
 117:Generated_Source\PSoC5/USBFS_1.c ****             0u,
 118:Generated_Source\PSoC5/USBFS_1.c ****             0u,
 119:Generated_Source\PSoC5/USBFS_1.c ****             0u,
 120:Generated_Source\PSoC5/USBFS_1.c ****             0u,
 121:Generated_Source\PSoC5/USBFS_1.c ****             0u,
 122:Generated_Source\PSoC5/USBFS_1.c ****             0u,
 123:Generated_Source\PSoC5/USBFS_1.c ****         };
 124:Generated_Source\PSoC5/USBFS_1.c **** 
 125:Generated_Source\PSoC5/USBFS_1.c ****         volatile uint16 USBFS_1_inLength[USBFS_1_MAX_EP];
 126:Generated_Source\PSoC5/USBFS_1.c ****         const uint8 *USBFS_1_inDataPointer[USBFS_1_MAX_EP];
 127:Generated_Source\PSoC5/USBFS_1.c ****         volatile uint8 USBFS_1_inBufFull[USBFS_1_MAX_EP];
 128:Generated_Source\PSoC5/USBFS_1.c ****     #endif /* (USBFS_1_EP_DMA_AUTO_OPT == 0u) */
 129:Generated_Source\PSoC5/USBFS_1.c **** #endif /* (CY_PSOC4) */
 130:Generated_Source\PSoC5/USBFS_1.c **** #endif /* (USBFS_1_EP_MANAGEMENT_DMA_AUTO) */
 131:Generated_Source\PSoC5/USBFS_1.c **** 
 132:Generated_Source\PSoC5/USBFS_1.c **** 
 133:Generated_Source\PSoC5/USBFS_1.c **** /*******************************************************************************
 134:Generated_Source\PSoC5/USBFS_1.c **** * Function Name: USBFS_1_Start
 135:Generated_Source\PSoC5/USBFS_1.c **** ****************************************************************************//**
 136:Generated_Source\PSoC5/USBFS_1.c **** *
 137:Generated_Source\PSoC5/USBFS_1.c **** *   This function performs all required initialization for the USBFS component.
 138:Generated_Source\PSoC5/USBFS_1.c **** *   After this function call, the USB device initiates communication with the
 139:Generated_Source\PSoC5/USBFS_1.c **** *   host by pull-up D+ line. This is the preferred method to begin component
 140:Generated_Source\PSoC5/USBFS_1.c **** *   operation.
 141:Generated_Source\PSoC5/USBFS_1.c **** *
 142:Generated_Source\PSoC5/USBFS_1.c **** *   Note that global interrupts have to be enabled because interrupts are
 143:Generated_Source\PSoC5/USBFS_1.c **** *   required for USBFS component operation.
 144:Generated_Source\PSoC5/USBFS_1.c **** *
ARM GAS  C:\Users\Alex\AppData\Local\Temp\ccapzahD.s 			page 4


 145:Generated_Source\PSoC5/USBFS_1.c **** *   PSoC 4200L devices: when USBFS component configured to DMA with Automatic
 146:Generated_Source\PSoC5/USBFS_1.c **** *   Buffer Management, the DMA interrupt priority is changed to the highest
 147:Generated_Source\PSoC5/USBFS_1.c **** *   (priority 0) inside this function.
 148:Generated_Source\PSoC5/USBFS_1.c **** *
 149:Generated_Source\PSoC5/USBFS_1.c **** *   PSoC 3/PSoC 5LP devices: when USBFS component configured to DMA with
 150:Generated_Source\PSoC5/USBFS_1.c **** *   Automatic Buffer Management, the Arbiter interrupt priority is changed to
 151:Generated_Source\PSoC5/USBFS_1.c **** *   the highest (priority 0) inside this function.
 152:Generated_Source\PSoC5/USBFS_1.c **** *
 153:Generated_Source\PSoC5/USBFS_1.c **** *  \param device
 154:Generated_Source\PSoC5/USBFS_1.c **** *          Contains the device number of the desired device descriptor.
 155:Generated_Source\PSoC5/USBFS_1.c **** *          The device number can be found in the Device Descriptor Tab of
 156:Generated_Source\PSoC5/USBFS_1.c **** *          "Configure" dialog, under the settings of desired Device Descriptor,
 157:Generated_Source\PSoC5/USBFS_1.c **** *          in the "Device Number" field.
 158:Generated_Source\PSoC5/USBFS_1.c **** *  \param mode:
 159:Generated_Source\PSoC5/USBFS_1.c **** *   The operating voltage. This determines whether the voltage regulator
 160:Generated_Source\PSoC5/USBFS_1.c **** *   is enabled for 5V operation or if pass through mode is used for 3.3V
 161:Generated_Source\PSoC5/USBFS_1.c **** *   operation. Symbolic names and their associated values are given in the
 162:Generated_Source\PSoC5/USBFS_1.c **** *   following list.
 163:Generated_Source\PSoC5/USBFS_1.c **** *
 164:Generated_Source\PSoC5/USBFS_1.c **** *       *USBFS_1_3V_OPERATION* - Disable voltage regulator and pass-
 165:Generated_Source\PSoC5/USBFS_1.c **** *                                      through Vcc for pull-up
 166:Generated_Source\PSoC5/USBFS_1.c **** *
 167:Generated_Source\PSoC5/USBFS_1.c **** *       *USBFS_1_5V_OPERATION* - Enable voltage regulator and use
 168:Generated_Source\PSoC5/USBFS_1.c **** *                                      regulator for pull-up
 169:Generated_Source\PSoC5/USBFS_1.c **** *
 170:Generated_Source\PSoC5/USBFS_1.c **** *       *USBFS_1_DWR_POWER_OPERATION* - Enable or disable the voltage
 171:Generated_Source\PSoC5/USBFS_1.c **** *                                      regulator depending on the power supply
 172:Generated_Source\PSoC5/USBFS_1.c **** *                                      voltage configuration in the DWR tab.
 173:Generated_Source\PSoC5/USBFS_1.c **** *                                      For PSoC 3/5LP devices, the VDDD supply
 174:Generated_Source\PSoC5/USBFS_1.c **** *                                      voltage is considered and for PSoC 4A-L,
 175:Generated_Source\PSoC5/USBFS_1.c **** *                                      the VBUS supply voltage is considered.*
 176:Generated_Source\PSoC5/USBFS_1.c **** * \globalvars
 177:Generated_Source\PSoC5/USBFS_1.c **** *  \ref USBFS_1_initVar
 178:Generated_Source\PSoC5/USBFS_1.c **** *
 179:Generated_Source\PSoC5/USBFS_1.c **** * \sideeffect
 180:Generated_Source\PSoC5/USBFS_1.c **** *   This function will reset all communication states to default.
 181:Generated_Source\PSoC5/USBFS_1.c **** *
 182:Generated_Source\PSoC5/USBFS_1.c **** * \reentrant
 183:Generated_Source\PSoC5/USBFS_1.c **** *  No.
 184:Generated_Source\PSoC5/USBFS_1.c **** *
 185:Generated_Source\PSoC5/USBFS_1.c **** *******************************************************************************/
 186:Generated_Source\PSoC5/USBFS_1.c **** void USBFS_1_Start(uint8 device, uint8 mode) 
 187:Generated_Source\PSoC5/USBFS_1.c **** {
 188:Generated_Source\PSoC5/USBFS_1.c ****     if (0u == USBFS_1_initVar)
 189:Generated_Source\PSoC5/USBFS_1.c ****     {
 190:Generated_Source\PSoC5/USBFS_1.c ****         USBFS_1_Init();
 191:Generated_Source\PSoC5/USBFS_1.c ****         USBFS_1_initVar = 1u;
 192:Generated_Source\PSoC5/USBFS_1.c ****     }
 193:Generated_Source\PSoC5/USBFS_1.c **** 
 194:Generated_Source\PSoC5/USBFS_1.c ****     USBFS_1_InitComponent(device, mode);
 195:Generated_Source\PSoC5/USBFS_1.c **** }
 196:Generated_Source\PSoC5/USBFS_1.c **** 
 197:Generated_Source\PSoC5/USBFS_1.c **** 
 198:Generated_Source\PSoC5/USBFS_1.c **** /*******************************************************************************
 199:Generated_Source\PSoC5/USBFS_1.c **** * Function Name: USBFS_1_Init
 200:Generated_Source\PSoC5/USBFS_1.c **** ****************************************************************************//**
 201:Generated_Source\PSoC5/USBFS_1.c **** *
ARM GAS  C:\Users\Alex\AppData\Local\Temp\ccapzahD.s 			page 5


 202:Generated_Source\PSoC5/USBFS_1.c **** * This function initializes or restores the component according to the
 203:Generated_Source\PSoC5/USBFS_1.c **** * customizer Configure dialog settings. It is not necessary to call
 204:Generated_Source\PSoC5/USBFS_1.c **** * USBFS_1_Init() because the USBFS_1_Start() routine calls
 205:Generated_Source\PSoC5/USBFS_1.c **** * this function and is the preferred method to begin component operation.
 206:Generated_Source\PSoC5/USBFS_1.c **** *
 207:Generated_Source\PSoC5/USBFS_1.c **** * \reentrant
 208:Generated_Source\PSoC5/USBFS_1.c **** *  No.
 209:Generated_Source\PSoC5/USBFS_1.c **** *
 210:Generated_Source\PSoC5/USBFS_1.c **** *******************************************************************************/
 211:Generated_Source\PSoC5/USBFS_1.c **** void USBFS_1_Init(void) 
 212:Generated_Source\PSoC5/USBFS_1.c **** {
  28              		.loc 1 212 0
  29              		.cfi_startproc
  30              		@ args = 0, pretend = 0, frame = 0
  31              		@ frame_needed = 0, uses_anonymous_args = 0
  32 0000 F8B5     		push	{r3, r4, r5, r6, r7, lr}
  33              		.cfi_def_cfa_offset 24
  34              		.cfi_offset 3, -24
  35              		.cfi_offset 4, -20
  36              		.cfi_offset 5, -16
  37              		.cfi_offset 6, -12
  38              		.cfi_offset 7, -8
  39              		.cfi_offset 14, -4
 213:Generated_Source\PSoC5/USBFS_1.c **** #if (CY_PSOC4)
 214:Generated_Source\PSoC5/USBFS_1.c ****     /* Enable clock to USB IP. */
 215:Generated_Source\PSoC5/USBFS_1.c ****     USBFS_1_USB_CLK_EN_REG = USBFS_1_USB_CLK_CSR_CLK_EN;
 216:Generated_Source\PSoC5/USBFS_1.c **** 
 217:Generated_Source\PSoC5/USBFS_1.c ****     /* The internal regulator (CR1.REG_ENABLE) is enabled in
 218:Generated_Source\PSoC5/USBFS_1.c ****     * USBFS_1_InitComponent() if it is required.
 219:Generated_Source\PSoC5/USBFS_1.c ****     */
 220:Generated_Source\PSoC5/USBFS_1.c **** 
 221:Generated_Source\PSoC5/USBFS_1.c ****     /* Enable USBIO control on drive mode of D+ and D- pins. */
 222:Generated_Source\PSoC5/USBFS_1.c ****     USBFS_1_USBIO_CR1_REG &= ~ (uint32) USBFS_1_USBIO_CR1_IOMODE;
 223:Generated_Source\PSoC5/USBFS_1.c **** 
 224:Generated_Source\PSoC5/USBFS_1.c ****     /* Set number of LF CLK to detect UBS bus reset. */
 225:Generated_Source\PSoC5/USBFS_1.c ****     USBFS_1_BUS_RST_CNT_REG = USBFS_1_DEFUALT_BUS_RST_CNT;
 226:Generated_Source\PSoC5/USBFS_1.c **** 
 227:Generated_Source\PSoC5/USBFS_1.c ****     /* Select VBUS detection source and clear PHY isolate. The application level
 228:Generated_Source\PSoC5/USBFS_1.c ****     * must ensure that VBUS is valid. There is no need to wait 2us before VBUS is valid.
 229:Generated_Source\PSoC5/USBFS_1.c ****     */
 230:Generated_Source\PSoC5/USBFS_1.c ****     USBFS_1_POWER_CTRL_REG = USBFS_1_DEFAULT_POWER_CTRL_VBUS;
 231:Generated_Source\PSoC5/USBFS_1.c **** 
 232:Generated_Source\PSoC5/USBFS_1.c ****     /* Enable PHY detector and single-ended and differential receivers. */
 233:Generated_Source\PSoC5/USBFS_1.c ****     USBFS_1_POWER_CTRL_REG |= USBFS_1_DEFAULT_POWER_CTRL_PHY;
 234:Generated_Source\PSoC5/USBFS_1.c **** 
 235:Generated_Source\PSoC5/USBFS_1.c ****     /* Suspend clear sequence. */
 236:Generated_Source\PSoC5/USBFS_1.c ****     USBFS_1_POWER_CTRL_REG &= (uint32) ~USBFS_1_POWER_CTRL_SUSPEND;
 237:Generated_Source\PSoC5/USBFS_1.c ****     CyDelayUs(USBFS_1_WAIT_SUSPEND_DEL_DISABLE);
 238:Generated_Source\PSoC5/USBFS_1.c ****     USBFS_1_POWER_CTRL_REG &= (uint32) ~USBFS_1_POWER_CTRL_SUSPEND_DEL;
 239:Generated_Source\PSoC5/USBFS_1.c **** 
 240:Generated_Source\PSoC5/USBFS_1.c ****     /* Sets IMO lock options and clear all other bits. */
 241:Generated_Source\PSoC5/USBFS_1.c ****     USBFS_1_CR1_REG = USBFS_1_DEFUALT_CR1;
 242:Generated_Source\PSoC5/USBFS_1.c **** 
 243:Generated_Source\PSoC5/USBFS_1.c ****     /* Configure level (hi, lo, med) for each interrupt source. */
 244:Generated_Source\PSoC5/USBFS_1.c ****     USBFS_1_INTR_LVL_SEL_REG = USBFS_1_DEFAULT_INTR_LVL_SEL;
 245:Generated_Source\PSoC5/USBFS_1.c **** 
 246:Generated_Source\PSoC5/USBFS_1.c ****     /* Configure interrupt sources from: SOF, Bus Reset and EP0. */
ARM GAS  C:\Users\Alex\AppData\Local\Temp\ccapzahD.s 			page 6


 247:Generated_Source\PSoC5/USBFS_1.c ****     USBFS_1_INTR_SIE_MASK_REG = USBFS_1_DEFAULT_INTR_SIE_MASK;
 248:Generated_Source\PSoC5/USBFS_1.c **** 
 249:Generated_Source\PSoC5/USBFS_1.c **** #else
 250:Generated_Source\PSoC5/USBFS_1.c ****     uint8 enableInterrupts = CyEnterCriticalSection();
  40              		.loc 1 250 0
  41 0002 FFF7FEFF 		bl	CyEnterCriticalSection
  42              	.LVL0:
  43 0006 0746     		mov	r7, r0
  44              	.LVL1:
 251:Generated_Source\PSoC5/USBFS_1.c **** 
 252:Generated_Source\PSoC5/USBFS_1.c **** #if (USBFS_1_EP_MANAGEMENT_DMA)
 253:Generated_Source\PSoC5/USBFS_1.c ****     uint16 i;
 254:Generated_Source\PSoC5/USBFS_1.c **** #endif /* (USBFS_1_EP_MANAGEMENT_DMA) */
 255:Generated_Source\PSoC5/USBFS_1.c **** 
 256:Generated_Source\PSoC5/USBFS_1.c ****     /* Enable USB block. */
 257:Generated_Source\PSoC5/USBFS_1.c ****     USBFS_1_PM_ACT_CFG_REG |= USBFS_1_PM_ACT_EN_FSUSB;
  45              		.loc 1 257 0
  46 0008 3C4A     		ldr	r2, .L3
  47 000a 1378     		ldrb	r3, [r2]	@ zero_extendqisi2
  48 000c 43F00103 		orr	r3, r3, #1
  49 0010 1370     		strb	r3, [r2]
 258:Generated_Source\PSoC5/USBFS_1.c ****     /* Enable USB block for Standby Power Mode. */
 259:Generated_Source\PSoC5/USBFS_1.c ****     USBFS_1_PM_STBY_CFG_REG |= USBFS_1_PM_STBY_EN_FSUSB;
  50              		.loc 1 259 0
  51 0012 1032     		adds	r2, r2, #16
  52 0014 1378     		ldrb	r3, [r2]	@ zero_extendqisi2
  53 0016 43F00103 		orr	r3, r3, #1
  54 001a 1370     		strb	r3, [r2]
 260:Generated_Source\PSoC5/USBFS_1.c **** 
 261:Generated_Source\PSoC5/USBFS_1.c ****     /* Enable core clock. */
 262:Generated_Source\PSoC5/USBFS_1.c ****     USBFS_1_USB_CLK_EN_REG = USBFS_1_USB_CLK_ENABLE;
  55              		.loc 1 262 0
  56 001c 0126     		movs	r6, #1
  57 001e 384B     		ldr	r3, .L3+4
  58 0020 1E70     		strb	r6, [r3]
 263:Generated_Source\PSoC5/USBFS_1.c **** 
 264:Generated_Source\PSoC5/USBFS_1.c ****     USBFS_1_CR1_REG = USBFS_1_CR1_ENABLE_LOCK;
  59              		.loc 1 264 0
  60 0022 0225     		movs	r5, #2
  61 0024 943B     		subs	r3, r3, #148
  62 0026 1D70     		strb	r5, [r3]
 265:Generated_Source\PSoC5/USBFS_1.c **** 
 266:Generated_Source\PSoC5/USBFS_1.c ****     /* ENABLING USBIO PADS IN USB MODE FROM I/O MODE. */
 267:Generated_Source\PSoC5/USBFS_1.c ****     /* Ensure USB transmit enable is low (USB_USBIO_CR0.ten). - Manual Transmission - Disabled. */
 268:Generated_Source\PSoC5/USBFS_1.c ****     USBFS_1_USBIO_CR0_REG &= (uint8) ~USBFS_1_USBIO_CR0_TEN;
  63              		.loc 1 268 0
  64 0028 02F5E252 		add	r2, r2, #7232
  65 002c 1B32     		adds	r2, r2, #27
  66 002e 1378     		ldrb	r3, [r2]	@ zero_extendqisi2
  67 0030 03F07F03 		and	r3, r3, #127
  68 0034 1370     		strb	r3, [r2]
 269:Generated_Source\PSoC5/USBFS_1.c ****     CyDelayUs(USBFS_1_WAIT_REG_STABILITY_50NS);  /* ~50ns delay. */
  69              		.loc 1 269 0
  70 0036 0020     		movs	r0, #0
  71 0038 FFF7FEFF 		bl	CyDelayUs
  72              	.LVL2:
 270:Generated_Source\PSoC5/USBFS_1.c ****     /* Disable USBIO by asserting PM.USB_CR0.fsusbio_pd_n(Inverted.
ARM GAS  C:\Users\Alex\AppData\Local\Temp\ccapzahD.s 			page 7


 271:Generated_Source\PSoC5/USBFS_1.c ****     *  high. These bits will be set low by the power manager out-of-reset.
 272:Generated_Source\PSoC5/USBFS_1.c ****     *  Also confirm USBIO pull-up is disabled.
 273:Generated_Source\PSoC5/USBFS_1.c ****     */
 274:Generated_Source\PSoC5/USBFS_1.c ****     USBFS_1_PM_USB_CR0_REG &= (uint8) ~(USBFS_1_PM_USB_CR0_PD_N |
  73              		.loc 1 274 0
  74 003c 314C     		ldr	r4, .L3+8
  75 003e 2378     		ldrb	r3, [r4]	@ zero_extendqisi2
  76 0040 03F0F903 		and	r3, r3, #249
  77 0044 2370     		strb	r3, [r4]
 275:Generated_Source\PSoC5/USBFS_1.c ****                                                  USBFS_1_PM_USB_CR0_PD_PULLUP_N);
 276:Generated_Source\PSoC5/USBFS_1.c **** 
 277:Generated_Source\PSoC5/USBFS_1.c ****     /* Select IOMODE to USB mode. */
 278:Generated_Source\PSoC5/USBFS_1.c ****     USBFS_1_USBIO_CR1_REG &= (uint8) ~USBFS_1_USBIO_CR1_IOMODE;
  78              		.loc 1 278 0
  79 0046 304A     		ldr	r2, .L3+12
  80 0048 1378     		ldrb	r3, [r2]	@ zero_extendqisi2
  81 004a 03F0DF03 		and	r3, r3, #223
  82 004e 1370     		strb	r3, [r2]
 279:Generated_Source\PSoC5/USBFS_1.c **** 
 280:Generated_Source\PSoC5/USBFS_1.c ****     /* Enable USBIO reference by setting PM.USB_CR0.fsusbio_ref_en. */
 281:Generated_Source\PSoC5/USBFS_1.c ****     USBFS_1_PM_USB_CR0_REG |= USBFS_1_PM_USB_CR0_REF_EN;
  83              		.loc 1 281 0
  84 0050 2378     		ldrb	r3, [r4]	@ zero_extendqisi2
  85 0052 3343     		orrs	r3, r3, r6
  86 0054 2370     		strb	r3, [r4]
 282:Generated_Source\PSoC5/USBFS_1.c ****     /* Reference is available for 1us after regulator is enabled. */
 283:Generated_Source\PSoC5/USBFS_1.c ****     CyDelayUs(USBFS_1_WAIT_REG_STABILITY_1US);
  87              		.loc 1 283 0
  88 0056 3046     		mov	r0, r6
  89 0058 FFF7FEFF 		bl	CyDelayUs
  90              	.LVL3:
 284:Generated_Source\PSoC5/USBFS_1.c ****     /* OR 40us after power is restored. */
 285:Generated_Source\PSoC5/USBFS_1.c ****     CyDelayUs(USBFS_1_WAIT_VREF_RESTORE);
  91              		.loc 1 285 0
  92 005c 2820     		movs	r0, #40
  93 005e FFF7FEFF 		bl	CyDelayUs
  94              	.LVL4:
 286:Generated_Source\PSoC5/USBFS_1.c ****     /* Ensure single-ended disable bits are low (PRT15.INP_DIS[7:6])(input receiver enabled). */
 287:Generated_Source\PSoC5/USBFS_1.c ****     USBFS_1_DM_INP_DIS_REG &= (uint8) ~USBFS_1_DM_MASK;
  95              		.loc 1 287 0
  96 0062 2A4B     		ldr	r3, .L3+16
  97 0064 1A78     		ldrb	r2, [r3]	@ zero_extendqisi2
  98 0066 02F07F02 		and	r2, r2, #127
  99 006a 1A70     		strb	r2, [r3]
 288:Generated_Source\PSoC5/USBFS_1.c ****     USBFS_1_DP_INP_DIS_REG &= (uint8) ~USBFS_1_DP_MASK;
 100              		.loc 1 288 0
 101 006c 1A78     		ldrb	r2, [r3]	@ zero_extendqisi2
 102 006e 02F0BF02 		and	r2, r2, #191
 103 0072 1A70     		strb	r2, [r3]
 289:Generated_Source\PSoC5/USBFS_1.c **** 
 290:Generated_Source\PSoC5/USBFS_1.c ****     /* Enable USBIO. */
 291:Generated_Source\PSoC5/USBFS_1.c ****     USBFS_1_PM_USB_CR0_REG |= USBFS_1_PM_USB_CR0_PD_N;
 104              		.loc 1 291 0
 105 0074 2378     		ldrb	r3, [r4]	@ zero_extendqisi2
 106 0076 2B43     		orrs	r3, r3, r5
 107 0078 2370     		strb	r3, [r4]
 292:Generated_Source\PSoC5/USBFS_1.c ****     CyDelayUs(USBFS_1_WAIT_PD_PULLUP_N_ENABLE);
ARM GAS  C:\Users\Alex\AppData\Local\Temp\ccapzahD.s 			page 8


 108              		.loc 1 292 0
 109 007a 2846     		mov	r0, r5
 110 007c FFF7FEFF 		bl	CyDelayUs
 111              	.LVL5:
 293:Generated_Source\PSoC5/USBFS_1.c ****     /* Set USBIO pull-up enable. */
 294:Generated_Source\PSoC5/USBFS_1.c ****     USBFS_1_PM_USB_CR0_REG |= USBFS_1_PM_USB_CR0_PD_PULLUP_N;
 112              		.loc 1 294 0
 113 0080 2378     		ldrb	r3, [r4]	@ zero_extendqisi2
 114 0082 43F00403 		orr	r3, r3, #4
 115 0086 2370     		strb	r3, [r4]
 295:Generated_Source\PSoC5/USBFS_1.c **** 
 296:Generated_Source\PSoC5/USBFS_1.c ****     /* Reset Arbiter Write Address register for endpoint 1. */
 297:Generated_Source\PSoC5/USBFS_1.c ****     CY_SET_REG8(USBFS_1_ARB_RW1_WA_PTR,     0u);
 116              		.loc 1 297 0
 117 0088 0023     		movs	r3, #0
 118 008a 214A     		ldr	r2, .L3+20
 119 008c 1370     		strb	r3, [r2]
 298:Generated_Source\PSoC5/USBFS_1.c ****     CY_SET_REG8(USBFS_1_ARB_RW1_WA_MSB_PTR, 0u);
 120              		.loc 1 298 0
 121 008e 0132     		adds	r2, r2, #1
 122 0090 1370     		strb	r3, [r2]
 299:Generated_Source\PSoC5/USBFS_1.c **** 
 300:Generated_Source\PSoC5/USBFS_1.c **** #if (USBFS_1_EP_MANAGEMENT_DMA)
 301:Generated_Source\PSoC5/USBFS_1.c ****     /* Initialize transfer descriptor. This will be used to detect DMA state - initialized or not. 
 302:Generated_Source\PSoC5/USBFS_1.c ****     for (i = 0u; i < USBFS_1_MAX_EP; ++i)
 303:Generated_Source\PSoC5/USBFS_1.c ****     {
 304:Generated_Source\PSoC5/USBFS_1.c ****         USBFS_1_DmaTd[i] = DMA_INVALID_TD;
 305:Generated_Source\PSoC5/USBFS_1.c **** 
 306:Generated_Source\PSoC5/USBFS_1.c ****     #if (USBFS_1_EP_MANAGEMENT_DMA_AUTO && (USBFS_1_EP_DMA_AUTO_OPT == 0u))
 307:Generated_Source\PSoC5/USBFS_1.c ****         USBFS_1_DmaNextTd[i] = DMA_INVALID_TD;
 308:Generated_Source\PSoC5/USBFS_1.c ****     #endif /* (USBFS_1_EP_MANAGEMENT_DMA_AUTO && (USBFS_1_EP_DMA_AUTO_OPT == 0u)) */
 309:Generated_Source\PSoC5/USBFS_1.c ****     }
 310:Generated_Source\PSoC5/USBFS_1.c **** #endif /* (USBFS_1_EP_MANAGEMENT_DMA) */
 311:Generated_Source\PSoC5/USBFS_1.c **** 
 312:Generated_Source\PSoC5/USBFS_1.c ****     CyExitCriticalSection(enableInterrupts);
 123              		.loc 1 312 0
 124 0092 3846     		mov	r0, r7
 125 0094 FFF7FEFF 		bl	CyExitCriticalSection
 126              	.LVL6:
 313:Generated_Source\PSoC5/USBFS_1.c **** #endif /* (CY_PSOC4) */
 314:Generated_Source\PSoC5/USBFS_1.c **** 
 315:Generated_Source\PSoC5/USBFS_1.c ****     /* Configure interrupts from USB block. */
 316:Generated_Source\PSoC5/USBFS_1.c **** #if (CY_PSOC4)
 317:Generated_Source\PSoC5/USBFS_1.c ****     /* Configure hi_int: set handler and priority. */
 318:Generated_Source\PSoC5/USBFS_1.c ****     CyIntSetPriority     (USBFS_1_INTR_HI_VECT_NUM,  USBFS_1_INTR_HI_PRIORITY);
 319:Generated_Source\PSoC5/USBFS_1.c ****     (void) CyIntSetVector(USBFS_1_INTR_HI_VECT_NUM, &USBFS_1_INTR_HI_ISR);
 320:Generated_Source\PSoC5/USBFS_1.c **** 
 321:Generated_Source\PSoC5/USBFS_1.c ****     /* Configure lo_int: set handler and priority. */
 322:Generated_Source\PSoC5/USBFS_1.c ****     CyIntSetPriority     (USBFS_1_INTR_LO_VECT_NUM,  USBFS_1_INTR_LO_PRIORITY);
 323:Generated_Source\PSoC5/USBFS_1.c ****     (void) CyIntSetVector(USBFS_1_INTR_LO_VECT_NUM, &USBFS_1_INTR_LO_ISR);
 324:Generated_Source\PSoC5/USBFS_1.c **** 
 325:Generated_Source\PSoC5/USBFS_1.c ****     /* Configure med_int: set handler and priority (routed through DSI). */
 326:Generated_Source\PSoC5/USBFS_1.c ****     CyIntSetPriority     (USBFS_1_INTR_MED_VECT_NUM,  USBFS_1_INTR_MED_PRIORITY);
 327:Generated_Source\PSoC5/USBFS_1.c ****     (void) CyIntSetVector(USBFS_1_INTR_MED_VECT_NUM, &USBFS_1_INTR_MED_ISR);
 328:Generated_Source\PSoC5/USBFS_1.c **** 
 329:Generated_Source\PSoC5/USBFS_1.c **** #else
 330:Generated_Source\PSoC5/USBFS_1.c ****     /* Set bus reset interrupt. */
ARM GAS  C:\Users\Alex\AppData\Local\Temp\ccapzahD.s 			page 9


 331:Generated_Source\PSoC5/USBFS_1.c ****     CyIntSetPriority(USBFS_1_BUS_RESET_VECT_NUM, USBFS_1_BUS_RESET_PRIOR);
 127              		.loc 1 331 0
 128 0098 0721     		movs	r1, #7
 129 009a 1720     		movs	r0, #23
 130 009c FFF7FEFF 		bl	CyIntSetPriority
 131              	.LVL7:
 332:Generated_Source\PSoC5/USBFS_1.c ****     (void) CyIntSetVector(USBFS_1_BUS_RESET_VECT_NUM,   &USBFS_1_BUS_RESET_ISR);
 132              		.loc 1 332 0
 133 00a0 1C49     		ldr	r1, .L3+24
 134 00a2 1720     		movs	r0, #23
 135 00a4 FFF7FEFF 		bl	CyIntSetVector
 136              	.LVL8:
 333:Generated_Source\PSoC5/USBFS_1.c **** 
 334:Generated_Source\PSoC5/USBFS_1.c ****     /* Set Control Endpoint Interrupt. */
 335:Generated_Source\PSoC5/USBFS_1.c ****     CyIntSetPriority(USBFS_1_EP_0_VECT_NUM, USBFS_1_EP_0_PRIOR);
 137              		.loc 1 335 0
 138 00a8 0721     		movs	r1, #7
 139 00aa 1820     		movs	r0, #24
 140 00ac FFF7FEFF 		bl	CyIntSetPriority
 141              	.LVL9:
 336:Generated_Source\PSoC5/USBFS_1.c ****     (void) CyIntSetVector(USBFS_1_EP_0_VECT_NUM,   &USBFS_1_EP_0_ISR);
 142              		.loc 1 336 0
 143 00b0 1949     		ldr	r1, .L3+28
 144 00b2 1820     		movs	r0, #24
 145 00b4 FFF7FEFF 		bl	CyIntSetVector
 146              	.LVL10:
 337:Generated_Source\PSoC5/USBFS_1.c **** 
 338:Generated_Source\PSoC5/USBFS_1.c ****     /* Set SOF interrupt. */
 339:Generated_Source\PSoC5/USBFS_1.c ****     #if (USBFS_1_SOF_ISR_ACTIVE)
 340:Generated_Source\PSoC5/USBFS_1.c ****         CyIntSetPriority     (USBFS_1_SOF_VECT_NUM,  USBFS_1_SOF_PRIOR);
 147              		.loc 1 340 0
 148 00b8 0721     		movs	r1, #7
 149 00ba 1520     		movs	r0, #21
 150 00bc FFF7FEFF 		bl	CyIntSetPriority
 151              	.LVL11:
 341:Generated_Source\PSoC5/USBFS_1.c ****         (void) CyIntSetVector(USBFS_1_SOF_VECT_NUM, &USBFS_1_SOF_ISR);
 152              		.loc 1 341 0
 153 00c0 1649     		ldr	r1, .L3+32
 154 00c2 1520     		movs	r0, #21
 155 00c4 FFF7FEFF 		bl	CyIntSetVector
 156              	.LVL12:
 342:Generated_Source\PSoC5/USBFS_1.c ****     #endif /* (USBFS_1_SOF_ISR_ACTIVE) */
 343:Generated_Source\PSoC5/USBFS_1.c **** 
 344:Generated_Source\PSoC5/USBFS_1.c ****     /* Set Data Endpoint 1 Interrupt. */
 345:Generated_Source\PSoC5/USBFS_1.c ****     #if (USBFS_1_EP1_ISR_ACTIVE)
 346:Generated_Source\PSoC5/USBFS_1.c ****         CyIntSetPriority     (USBFS_1_EP_1_VECT_NUM,  USBFS_1_EP_1_PRIOR);
 157              		.loc 1 346 0
 158 00c8 0721     		movs	r1, #7
 159 00ca 3046     		mov	r0, r6
 160 00cc FFF7FEFF 		bl	CyIntSetPriority
 161              	.LVL13:
 347:Generated_Source\PSoC5/USBFS_1.c ****         (void) CyIntSetVector(USBFS_1_EP_1_VECT_NUM,  &USBFS_1_EP_1_ISR);
 162              		.loc 1 347 0
 163 00d0 1349     		ldr	r1, .L3+36
 164 00d2 3046     		mov	r0, r6
 165 00d4 FFF7FEFF 		bl	CyIntSetVector
 166              	.LVL14:
ARM GAS  C:\Users\Alex\AppData\Local\Temp\ccapzahD.s 			page 10


 348:Generated_Source\PSoC5/USBFS_1.c ****     #endif /* (USBFS_1_EP1_ISR_ACTIVE) */
 349:Generated_Source\PSoC5/USBFS_1.c **** 
 350:Generated_Source\PSoC5/USBFS_1.c ****     /* Set Data Endpoint 2 Interrupt. */
 351:Generated_Source\PSoC5/USBFS_1.c ****     #if (USBFS_1_EP2_ISR_ACTIVE)
 352:Generated_Source\PSoC5/USBFS_1.c ****         CyIntSetPriority     (USBFS_1_EP_2_VECT_NUM,  USBFS_1_EP_2_PRIOR);
 167              		.loc 1 352 0
 168 00d8 0721     		movs	r1, #7
 169 00da 2846     		mov	r0, r5
 170 00dc FFF7FEFF 		bl	CyIntSetPriority
 171              	.LVL15:
 353:Generated_Source\PSoC5/USBFS_1.c ****         (void) CyIntSetVector(USBFS_1_EP_2_VECT_NUM, &USBFS_1_EP_2_ISR);
 172              		.loc 1 353 0
 173 00e0 1049     		ldr	r1, .L3+40
 174 00e2 2846     		mov	r0, r5
 175 00e4 FFF7FEFF 		bl	CyIntSetVector
 176              	.LVL16:
 354:Generated_Source\PSoC5/USBFS_1.c ****     #endif /* (USBFS_1_EP2_ISR_ACTIVE) */
 355:Generated_Source\PSoC5/USBFS_1.c **** 
 356:Generated_Source\PSoC5/USBFS_1.c ****     /* Set Data Endpoint 3 Interrupt. */
 357:Generated_Source\PSoC5/USBFS_1.c ****     #if (USBFS_1_EP3_ISR_ACTIVE)
 358:Generated_Source\PSoC5/USBFS_1.c ****         CyIntSetPriority     (USBFS_1_EP_3_VECT_NUM,  USBFS_1_EP_3_PRIOR);
 359:Generated_Source\PSoC5/USBFS_1.c ****         (void) CyIntSetVector(USBFS_1_EP_3_VECT_NUM, &USBFS_1_EP_3_ISR);
 360:Generated_Source\PSoC5/USBFS_1.c ****     #endif /* (USBFS_1_EP3_ISR_ACTIVE) */
 361:Generated_Source\PSoC5/USBFS_1.c **** 
 362:Generated_Source\PSoC5/USBFS_1.c ****     /* Set Data Endpoint 4 Interrupt. */
 363:Generated_Source\PSoC5/USBFS_1.c ****     #if (USBFS_1_EP4_ISR_ACTIVE)
 364:Generated_Source\PSoC5/USBFS_1.c ****         CyIntSetPriority     (USBFS_1_EP_4_VECT_NUM,  USBFS_1_EP_4_PRIOR);
 365:Generated_Source\PSoC5/USBFS_1.c ****         (void) CyIntSetVector(USBFS_1_EP_4_VECT_NUM, &USBFS_1_EP_4_ISR);
 366:Generated_Source\PSoC5/USBFS_1.c ****     #endif /* (USBFS_1_EP4_ISR_ACTIVE) */
 367:Generated_Source\PSoC5/USBFS_1.c **** 
 368:Generated_Source\PSoC5/USBFS_1.c ****     /* Set Data Endpoint 5 Interrupt. */
 369:Generated_Source\PSoC5/USBFS_1.c ****     #if (USBFS_1_EP5_ISR_ACTIVE)
 370:Generated_Source\PSoC5/USBFS_1.c ****         CyIntSetPriority     (USBFS_1_EP_5_VECT_NUM,  USBFS_1_EP_5_PRIOR);
 371:Generated_Source\PSoC5/USBFS_1.c ****         (void) CyIntSetVector(USBFS_1_EP_5_VECT_NUM, &USBFS_1_EP_5_ISR);
 372:Generated_Source\PSoC5/USBFS_1.c ****     #endif /* (USBFS_1_EP5_ISR_ACTIVE) */
 373:Generated_Source\PSoC5/USBFS_1.c **** 
 374:Generated_Source\PSoC5/USBFS_1.c ****     /* Set Data Endpoint 6 Interrupt. */
 375:Generated_Source\PSoC5/USBFS_1.c ****     #if (USBFS_1_EP6_ISR_ACTIVE)
 376:Generated_Source\PSoC5/USBFS_1.c ****         CyIntSetPriority     (USBFS_1_EP_6_VECT_NUM,  USBFS_1_EP_6_PRIOR);
 377:Generated_Source\PSoC5/USBFS_1.c ****         (void) CyIntSetVector(USBFS_1_EP_6_VECT_NUM, &USBFS_1_EP_6_ISR);
 378:Generated_Source\PSoC5/USBFS_1.c ****     #endif /* (USBFS_1_EP6_ISR_ACTIVE) */
 379:Generated_Source\PSoC5/USBFS_1.c **** 
 380:Generated_Source\PSoC5/USBFS_1.c ****      /* Set Data Endpoint 7 Interrupt. */
 381:Generated_Source\PSoC5/USBFS_1.c ****     #if (USBFS_1_EP7_ISR_ACTIVE)
 382:Generated_Source\PSoC5/USBFS_1.c ****         CyIntSetPriority     (USBFS_1_EP_7_VECT_NUM,  USBFS_1_EP_7_PRIOR);
 383:Generated_Source\PSoC5/USBFS_1.c ****         (void) CyIntSetVector(USBFS_1_EP_7_VECT_NUM, &USBFS_1_EP_7_ISR);
 384:Generated_Source\PSoC5/USBFS_1.c ****     #endif /* (USBFS_1_EP7_ISR_ACTIVE) */
 385:Generated_Source\PSoC5/USBFS_1.c **** 
 386:Generated_Source\PSoC5/USBFS_1.c ****     /* Set Data Endpoint 8 Interrupt. */
 387:Generated_Source\PSoC5/USBFS_1.c ****     #if (USBFS_1_EP8_ISR_ACTIVE)
 388:Generated_Source\PSoC5/USBFS_1.c ****         CyIntSetPriority     (USBFS_1_EP_8_VECT_NUM,  USBFS_1_EP_8_PRIOR);
 389:Generated_Source\PSoC5/USBFS_1.c ****         (void) CyIntSetVector(USBFS_1_EP_8_VECT_NUM, &USBFS_1_EP_8_ISR);
 390:Generated_Source\PSoC5/USBFS_1.c ****     #endif /* (USBFS_1_EP8_ISR_ACTIVE) */
 391:Generated_Source\PSoC5/USBFS_1.c **** 
 392:Generated_Source\PSoC5/USBFS_1.c ****     /* Set ARB Interrupt. */
 393:Generated_Source\PSoC5/USBFS_1.c ****     #if (USBFS_1_EP_MANAGEMENT_DMA && USBFS_1_ARB_ISR_ACTIVE)
 394:Generated_Source\PSoC5/USBFS_1.c ****         CyIntSetPriority     (USBFS_1_ARB_VECT_NUM,  USBFS_1_ARB_PRIOR);
ARM GAS  C:\Users\Alex\AppData\Local\Temp\ccapzahD.s 			page 11


 395:Generated_Source\PSoC5/USBFS_1.c ****         (void) CyIntSetVector(USBFS_1_ARB_VECT_NUM, &USBFS_1_ARB_ISR);
 396:Generated_Source\PSoC5/USBFS_1.c ****     #endif /* (USBFS_1_EP_MANAGEMENT_DMA && USBFS_1_ARB_ISR_ACTIVE) */
 397:Generated_Source\PSoC5/USBFS_1.c **** #endif /* (CY_PSOC4) */
 398:Generated_Source\PSoC5/USBFS_1.c **** 
 399:Generated_Source\PSoC5/USBFS_1.c ****     /* Common: Configure GPIO interrupt for wakeup. */
 400:Generated_Source\PSoC5/USBFS_1.c **** #if (USBFS_1_DP_ISR_ACTIVE)
 401:Generated_Source\PSoC5/USBFS_1.c ****     CyIntSetPriority     (USBFS_1_DP_INTC_VECT_NUM,  USBFS_1_DP_INTC_PRIORITY);
 177              		.loc 1 401 0
 178 00e8 0721     		movs	r1, #7
 179 00ea 0C20     		movs	r0, #12
 180 00ec FFF7FEFF 		bl	CyIntSetPriority
 181              	.LVL17:
 402:Generated_Source\PSoC5/USBFS_1.c ****     (void) CyIntSetVector(USBFS_1_DP_INTC_VECT_NUM, &USBFS_1_DP_ISR);
 182              		.loc 1 402 0
 183 00f0 0D49     		ldr	r1, .L3+44
 184 00f2 0C20     		movs	r0, #12
 185 00f4 FFF7FEFF 		bl	CyIntSetVector
 186              	.LVL18:
 187 00f8 F8BD     		pop	{r3, r4, r5, r6, r7, pc}
 188              	.LVL19:
 189              	.L4:
 190 00fa 00BF     		.align	2
 191              	.L3:
 192 00fc A5430040 		.word	1073759141
 193 0100 9D600040 		.word	1073766557
 194 0104 94430040 		.word	1073759124
 195 0108 12600040 		.word	1073766418
 196 010c F8510040 		.word	1073762808
 197 0110 84600040 		.word	1073766532
 198 0114 00000000 		.word	USBFS_1_BUS_RESET_ISR
 199 0118 00000000 		.word	USBFS_1_EP_0_ISR
 200 011c 00000000 		.word	USBFS_1_SOF_ISR
 201 0120 00000000 		.word	USBFS_1_EP_1_ISR
 202 0124 00000000 		.word	USBFS_1_EP_2_ISR
 203 0128 00000000 		.word	USBFS_1_DP_ISR
 204              		.cfi_endproc
 205              	.LFE1:
 206              		.size	USBFS_1_Init, .-USBFS_1_Init
 207              		.section	.text.USBFS_1_InitComponent,"ax",%progbits
 208              		.align	2
 209              		.global	USBFS_1_InitComponent
 210              		.thumb
 211              		.thumb_func
 212              		.type	USBFS_1_InitComponent, %function
 213              	USBFS_1_InitComponent:
 214              	.LFB2:
 403:Generated_Source\PSoC5/USBFS_1.c **** #endif /* (USBFS_1_DP_ISR_ACTIVE) */
 404:Generated_Source\PSoC5/USBFS_1.c **** 
 405:Generated_Source\PSoC5/USBFS_1.c **** #if (USBFS_1_EP_MANAGEMENT_DMA && CY_PSOC4)
 406:Generated_Source\PSoC5/USBFS_1.c ****     /* Initialize DMA channels. */
 407:Generated_Source\PSoC5/USBFS_1.c ****     USBFS_1_InitEpDma();
 408:Generated_Source\PSoC5/USBFS_1.c **** #endif /* (USBFS_1_EP_MANAGEMENT_DMA && CY_PSOC4) */
 409:Generated_Source\PSoC5/USBFS_1.c **** }
 410:Generated_Source\PSoC5/USBFS_1.c **** 
 411:Generated_Source\PSoC5/USBFS_1.c **** 
 412:Generated_Source\PSoC5/USBFS_1.c **** /*******************************************************************************
 413:Generated_Source\PSoC5/USBFS_1.c **** * Function Name: USBFS_1_InitComponent
ARM GAS  C:\Users\Alex\AppData\Local\Temp\ccapzahD.s 			page 12


 414:Generated_Source\PSoC5/USBFS_1.c **** ****************************************************************************//**
 415:Generated_Source\PSoC5/USBFS_1.c **** *
 416:Generated_Source\PSoC5/USBFS_1.c **** *   This function initializes the component’s global variables and initiates
 417:Generated_Source\PSoC5/USBFS_1.c **** *   communication with the host by pull-up D+ line.
 418:Generated_Source\PSoC5/USBFS_1.c **** *
 419:Generated_Source\PSoC5/USBFS_1.c **** * \param device:
 420:Generated_Source\PSoC5/USBFS_1.c **** *   Contains the device number of the desired device descriptor. The device
 421:Generated_Source\PSoC5/USBFS_1.c **** *   number can be found in the Device Descriptor Tab of "Configure" dialog,
 422:Generated_Source\PSoC5/USBFS_1.c **** *   under the settings of desired Device Descriptor, in the *Device Number*
 423:Generated_Source\PSoC5/USBFS_1.c **** *   field.
 424:Generated_Source\PSoC5/USBFS_1.c **** *  \param mode:
 425:Generated_Source\PSoC5/USBFS_1.c **** *   The operating voltage. This determines whether the voltage regulator
 426:Generated_Source\PSoC5/USBFS_1.c **** *   is enabled for 5V operation or if pass through mode is used for 3.3V
 427:Generated_Source\PSoC5/USBFS_1.c **** *   operation. Symbolic names and their associated values are given in the
 428:Generated_Source\PSoC5/USBFS_1.c **** *   following list.
 429:Generated_Source\PSoC5/USBFS_1.c **** *
 430:Generated_Source\PSoC5/USBFS_1.c **** *       *USBFS_1_3V_OPERATION* - Disable voltage regulator and pass-
 431:Generated_Source\PSoC5/USBFS_1.c **** *                                      through Vcc for pull-up
 432:Generated_Source\PSoC5/USBFS_1.c **** *
 433:Generated_Source\PSoC5/USBFS_1.c **** *       *USBFS_1_5V_OPERATION* - Enable voltage regulator and use
 434:Generated_Source\PSoC5/USBFS_1.c **** *                                      regulator for pull-up
 435:Generated_Source\PSoC5/USBFS_1.c **** *
 436:Generated_Source\PSoC5/USBFS_1.c **** *       *USBFS_1_DWR_POWER_OPERATION* - Enable or disable the voltage
 437:Generated_Source\PSoC5/USBFS_1.c **** *                                      regulator depending on the power supply
 438:Generated_Source\PSoC5/USBFS_1.c **** *                                      voltage configuration in the DWR tab.
 439:Generated_Source\PSoC5/USBFS_1.c **** *                                      For PSoC 3/5LP devices, the VDDD supply
 440:Generated_Source\PSoC5/USBFS_1.c **** *                                      voltage is considered and for PSoC 4A-L,
 441:Generated_Source\PSoC5/USBFS_1.c **** *                                      the VBUS supply voltage is considered.
 442:Generated_Source\PSoC5/USBFS_1.c **** *
 443:Generated_Source\PSoC5/USBFS_1.c **** * \globalvars
 444:Generated_Source\PSoC5/USBFS_1.c **** *   \ref USBFS_1_device
 445:Generated_Source\PSoC5/USBFS_1.c **** *   \ref USBFS_1_transferState
 446:Generated_Source\PSoC5/USBFS_1.c **** *   \ref USBFS_1_configuration
 447:Generated_Source\PSoC5/USBFS_1.c **** *   \ref USBFS_1_deviceStatus
 448:Generated_Source\PSoC5/USBFS_1.c **** *
 449:Generated_Source\PSoC5/USBFS_1.c **** *   \ref USBFS_1_deviceAddress - Contains the current device address. This
 450:Generated_Source\PSoC5/USBFS_1.c **** *       variable is initialized to zero in this API. The Host starts to communicate
 451:Generated_Source\PSoC5/USBFS_1.c **** *      to the device with address 0 and then sets it to a whatever value using a
 452:Generated_Source\PSoC5/USBFS_1.c **** *      SET_ADDRESS request.
 453:Generated_Source\PSoC5/USBFS_1.c **** *
 454:Generated_Source\PSoC5/USBFS_1.c **** *   \ref USBFS_1_lastPacketSize - Initialized to 0;
 455:Generated_Source\PSoC5/USBFS_1.c **** *
 456:Generated_Source\PSoC5/USBFS_1.c **** * \reentrant
 457:Generated_Source\PSoC5/USBFS_1.c **** *  No.
 458:Generated_Source\PSoC5/USBFS_1.c **** *
 459:Generated_Source\PSoC5/USBFS_1.c **** *******************************************************************************/
 460:Generated_Source\PSoC5/USBFS_1.c **** void USBFS_1_InitComponent(uint8 device, uint8 mode) 
 461:Generated_Source\PSoC5/USBFS_1.c **** {
 215              		.loc 1 461 0
 216              		.cfi_startproc
 217              		@ args = 0, pretend = 0, frame = 0
 218              		@ frame_needed = 0, uses_anonymous_args = 0
 219              	.LVL20:
 220 0000 10B5     		push	{r4, lr}
 221              		.cfi_def_cfa_offset 8
 222              		.cfi_offset 4, -8
 223              		.cfi_offset 14, -4
ARM GAS  C:\Users\Alex\AppData\Local\Temp\ccapzahD.s 			page 13


 224              	.LVL21:
 462:Generated_Source\PSoC5/USBFS_1.c ****     /* Initialize _hidProtocol variable to comply with
 463:Generated_Source\PSoC5/USBFS_1.c ****     *  HID 7.2.6 Set_Protocol Request:
 464:Generated_Source\PSoC5/USBFS_1.c ****     *  "When initialized, all devices default to report protocol."
 465:Generated_Source\PSoC5/USBFS_1.c ****     */
 466:Generated_Source\PSoC5/USBFS_1.c **** #if defined(USBFS_1_ENABLE_HID_CLASS)
 467:Generated_Source\PSoC5/USBFS_1.c ****     uint8 i;
 468:Generated_Source\PSoC5/USBFS_1.c **** 
 469:Generated_Source\PSoC5/USBFS_1.c ****     for (i = 0u; i < USBFS_1_MAX_INTERFACES_NUMBER; i++)
 225              		.loc 1 469 0
 226 0002 0023     		movs	r3, #0
 227 0004 04E0     		b	.L6
 228              	.LVL22:
 229              	.L7:
 470:Generated_Source\PSoC5/USBFS_1.c ****     {
 471:Generated_Source\PSoC5/USBFS_1.c ****         USBFS_1_hidProtocol[i] = USBFS_1_PROTOCOL_REPORT;
 230              		.loc 1 471 0 discriminator 3
 231 0006 0124     		movs	r4, #1
 232 0008 234A     		ldr	r2, .L14
 233 000a D454     		strb	r4, [r2, r3]
 469:Generated_Source\PSoC5/USBFS_1.c ****     {
 234              		.loc 1 469 0 discriminator 3
 235 000c 2344     		add	r3, r3, r4
 236              	.LVL23:
 237 000e DBB2     		uxtb	r3, r3
 238              	.LVL24:
 239              	.L6:
 469:Generated_Source\PSoC5/USBFS_1.c ****     {
 240              		.loc 1 469 0 is_stmt 0 discriminator 1
 241 0010 002B     		cmp	r3, #0
 242 0012 F8D0     		beq	.L7
 472:Generated_Source\PSoC5/USBFS_1.c ****     }
 473:Generated_Source\PSoC5/USBFS_1.c **** #endif /* USBFS_1_ENABLE_HID_CLASS */
 474:Generated_Source\PSoC5/USBFS_1.c **** 
 475:Generated_Source\PSoC5/USBFS_1.c ****     /* Store device number to access descriptor. */
 476:Generated_Source\PSoC5/USBFS_1.c ****     USBFS_1_device = device;
 243              		.loc 1 476 0 is_stmt 1
 244 0014 214B     		ldr	r3, .L14+4
 245              	.LVL25:
 246 0016 1870     		strb	r0, [r3]
 477:Generated_Source\PSoC5/USBFS_1.c **** 
 478:Generated_Source\PSoC5/USBFS_1.c ****     /* Reset component internal variables. */
 479:Generated_Source\PSoC5/USBFS_1.c ****     USBFS_1_transferState   = USBFS_1_TRANS_STATE_IDLE;
 247              		.loc 1 479 0
 248 0018 0023     		movs	r3, #0
 249 001a 214A     		ldr	r2, .L14+8
 250 001c 1370     		strb	r3, [r2]
 480:Generated_Source\PSoC5/USBFS_1.c ****     USBFS_1_configurationChanged = 0u;
 251              		.loc 1 480 0
 252 001e 214A     		ldr	r2, .L14+12
 253 0020 1370     		strb	r3, [r2]
 481:Generated_Source\PSoC5/USBFS_1.c ****     USBFS_1_configuration   = 0u;
 254              		.loc 1 481 0
 255 0022 214A     		ldr	r2, .L14+16
 256 0024 1370     		strb	r3, [r2]
 482:Generated_Source\PSoC5/USBFS_1.c ****     USBFS_1_interfaceNumber = 0u;
 257              		.loc 1 482 0
ARM GAS  C:\Users\Alex\AppData\Local\Temp\ccapzahD.s 			page 14


 258 0026 214A     		ldr	r2, .L14+20
 259 0028 1370     		strb	r3, [r2]
 483:Generated_Source\PSoC5/USBFS_1.c ****     USBFS_1_deviceAddress   = 0u;
 260              		.loc 1 483 0
 261 002a 214A     		ldr	r2, .L14+24
 262 002c 1370     		strb	r3, [r2]
 484:Generated_Source\PSoC5/USBFS_1.c ****     USBFS_1_deviceStatus    = 0u;
 263              		.loc 1 484 0
 264 002e 214A     		ldr	r2, .L14+28
 265 0030 1370     		strb	r3, [r2]
 485:Generated_Source\PSoC5/USBFS_1.c ****     USBFS_1_lastPacketSize  = 0u;
 266              		.loc 1 485 0
 267 0032 214A     		ldr	r2, .L14+32
 268 0034 1370     		strb	r3, [r2]
 486:Generated_Source\PSoC5/USBFS_1.c **** 
 487:Generated_Source\PSoC5/USBFS_1.c ****     /* Enable component interrupts. */
 488:Generated_Source\PSoC5/USBFS_1.c **** #if (CY_PSOC4)
 489:Generated_Source\PSoC5/USBFS_1.c ****     CyIntEnable(USBFS_1_INTR_HI_VECT_NUM);
 490:Generated_Source\PSoC5/USBFS_1.c ****     CyIntEnable(USBFS_1_INTR_MED_VECT_NUM);
 491:Generated_Source\PSoC5/USBFS_1.c ****     CyIntEnable(USBFS_1_INTR_LO_VECT_NUM);
 492:Generated_Source\PSoC5/USBFS_1.c **** #else
 493:Generated_Source\PSoC5/USBFS_1.c ****     CyIntEnable(USBFS_1_BUS_RESET_VECT_NUM);
 269              		.loc 1 493 0
 270 0036 214B     		ldr	r3, .L14+36
 271 0038 4FF40002 		mov	r2, #8388608
 272 003c 1A60     		str	r2, [r3]
 494:Generated_Source\PSoC5/USBFS_1.c ****     CyIntEnable(USBFS_1_EP_0_VECT_NUM);
 273              		.loc 1 494 0
 274 003e 4FF08072 		mov	r2, #16777216
 275 0042 1A60     		str	r2, [r3]
 495:Generated_Source\PSoC5/USBFS_1.c **** 
 496:Generated_Source\PSoC5/USBFS_1.c ****     #if (USBFS_1_SOF_ISR_ACTIVE)
 497:Generated_Source\PSoC5/USBFS_1.c ****         CyIntEnable(USBFS_1_SOF_VECT_NUM);
 276              		.loc 1 497 0
 277 0044 4FF40012 		mov	r2, #2097152
 278 0048 1A60     		str	r2, [r3]
 498:Generated_Source\PSoC5/USBFS_1.c ****     #endif /* (USBFS_1_SOF_ISR_ACTIVE) */
 499:Generated_Source\PSoC5/USBFS_1.c **** 
 500:Generated_Source\PSoC5/USBFS_1.c ****     #if (USBFS_1_EP1_ISR_ACTIVE)
 501:Generated_Source\PSoC5/USBFS_1.c ****         CyIntEnable(USBFS_1_EP_1_VECT_NUM);
 279              		.loc 1 501 0
 280 004a 0222     		movs	r2, #2
 281 004c 1A60     		str	r2, [r3]
 502:Generated_Source\PSoC5/USBFS_1.c ****     #endif /* (USBFS_1_EP1_ISR_ACTIVE) */
 503:Generated_Source\PSoC5/USBFS_1.c **** 
 504:Generated_Source\PSoC5/USBFS_1.c ****     #if (USBFS_1_EP2_ISR_ACTIVE)
 505:Generated_Source\PSoC5/USBFS_1.c ****         CyIntEnable(USBFS_1_EP_2_VECT_NUM);
 282              		.loc 1 505 0
 283 004e 0422     		movs	r2, #4
 284 0050 1A60     		str	r2, [r3]
 506:Generated_Source\PSoC5/USBFS_1.c ****     #endif /* (USBFS_1_EP5_ISR_ACTIVE) */
 507:Generated_Source\PSoC5/USBFS_1.c **** 
 508:Generated_Source\PSoC5/USBFS_1.c ****     #if (USBFS_1_EP3_ISR_ACTIVE)
 509:Generated_Source\PSoC5/USBFS_1.c ****         CyIntEnable(USBFS_1_EP_3_VECT_NUM);
 510:Generated_Source\PSoC5/USBFS_1.c ****     #endif /* (USBFS_1_EP5_ISR_ACTIVE) */
 511:Generated_Source\PSoC5/USBFS_1.c **** 
 512:Generated_Source\PSoC5/USBFS_1.c ****     #if (USBFS_1_EP4_ISR_ACTIVE)
ARM GAS  C:\Users\Alex\AppData\Local\Temp\ccapzahD.s 			page 15


 513:Generated_Source\PSoC5/USBFS_1.c ****         CyIntEnable(USBFS_1_EP_4_VECT_NUM);
 514:Generated_Source\PSoC5/USBFS_1.c ****     #endif /* (USBFS_1_EP5_ISR_ACTIVE) */
 515:Generated_Source\PSoC5/USBFS_1.c **** 
 516:Generated_Source\PSoC5/USBFS_1.c ****     #if (USBFS_1_EP5_ISR_ACTIVE)
 517:Generated_Source\PSoC5/USBFS_1.c ****         CyIntEnable(USBFS_1_EP_5_VECT_NUM);
 518:Generated_Source\PSoC5/USBFS_1.c ****     #endif /* (USBFS_1_EP5_ISR_ACTIVE) */
 519:Generated_Source\PSoC5/USBFS_1.c **** 
 520:Generated_Source\PSoC5/USBFS_1.c ****     #if (USBFS_1_EP6_ISR_ACTIVE)
 521:Generated_Source\PSoC5/USBFS_1.c ****         CyIntEnable(USBFS_1_EP_6_VECT_NUM);
 522:Generated_Source\PSoC5/USBFS_1.c ****     #endif /* USBFS_1_EP6_ISR_REMOVE */
 523:Generated_Source\PSoC5/USBFS_1.c **** 
 524:Generated_Source\PSoC5/USBFS_1.c ****     #if (USBFS_1_EP7_ISR_ACTIVE)
 525:Generated_Source\PSoC5/USBFS_1.c ****         CyIntEnable(USBFS_1_EP_7_VECT_NUM);
 526:Generated_Source\PSoC5/USBFS_1.c ****     #endif /* (USBFS_1_EP7_ISR_ACTIVE) */
 527:Generated_Source\PSoC5/USBFS_1.c **** 
 528:Generated_Source\PSoC5/USBFS_1.c ****     #if (USBFS_1_EP8_ISR_ACTIVE)
 529:Generated_Source\PSoC5/USBFS_1.c ****         CyIntEnable(USBFS_1_EP_8_VECT_NUM);
 530:Generated_Source\PSoC5/USBFS_1.c ****     #endif /* (USBFS_1_EP8_ISR_ACTIVE) */
 531:Generated_Source\PSoC5/USBFS_1.c **** #endif /* (CY_PSOC4) */
 532:Generated_Source\PSoC5/USBFS_1.c **** 
 533:Generated_Source\PSoC5/USBFS_1.c **** #if (USBFS_1_EP_MANAGEMENT_DMA && USBFS_1_ARB_ISR_ACTIVE)
 534:Generated_Source\PSoC5/USBFS_1.c ****     /* Enable ARB EP interrupt sources. */
 535:Generated_Source\PSoC5/USBFS_1.c ****     USBFS_1_ARB_INT_EN_REG = USBFS_1_DEFAULT_ARB_INT_EN;
 536:Generated_Source\PSoC5/USBFS_1.c **** 
 537:Generated_Source\PSoC5/USBFS_1.c ****     #if (CY_PSOC3 || CY_PSOC5)
 538:Generated_Source\PSoC5/USBFS_1.c ****         CyIntEnable(USBFS_1_ARB_VECT_NUM);
 539:Generated_Source\PSoC5/USBFS_1.c ****     #endif /* (CY_PSOC3 || CY_PSOC5) */
 540:Generated_Source\PSoC5/USBFS_1.c **** #endif   /* (USBFS_1_EP_MANAGEMENT_DMA && USBFS_1_ARB_ISR_ACTIVE) */
 541:Generated_Source\PSoC5/USBFS_1.c **** 
 542:Generated_Source\PSoC5/USBFS_1.c **** /* Arbiter configuration for DMA transfers. */
 543:Generated_Source\PSoC5/USBFS_1.c **** #if (USBFS_1_EP_MANAGEMENT_DMA)
 544:Generated_Source\PSoC5/USBFS_1.c ****     /* Configure Arbiter for Manual or Auto DMA operation and clear configuration completion. */
 545:Generated_Source\PSoC5/USBFS_1.c ****     USBFS_1_ARB_CFG_REG = USBFS_1_DEFAULT_ARB_CFG;
 546:Generated_Source\PSoC5/USBFS_1.c **** 
 547:Generated_Source\PSoC5/USBFS_1.c ****     #if (CY_PSOC4)
 548:Generated_Source\PSoC5/USBFS_1.c ****         /* Enable DMA operation. */
 549:Generated_Source\PSoC5/USBFS_1.c ****         CyDmaEnable();
 550:Generated_Source\PSoC5/USBFS_1.c **** 
 551:Generated_Source\PSoC5/USBFS_1.c ****         #if (USBFS_1_EP_MANAGEMENT_DMA_AUTO)
 552:Generated_Source\PSoC5/USBFS_1.c ****             /* Change DMA priority to be highest. */
 553:Generated_Source\PSoC5/USBFS_1.c ****              CyIntSetPriority(CYDMA_INTR_NUMBER, USBFS_1_DMA_AUTO_INTR_PRIO);
 554:Generated_Source\PSoC5/USBFS_1.c ****         #endif /* (USBFS_1_EP_MANAGEMENT_DMA_AUTO) */
 555:Generated_Source\PSoC5/USBFS_1.c ****     #endif /* (CY_PSOC4) */
 556:Generated_Source\PSoC5/USBFS_1.c **** 
 557:Generated_Source\PSoC5/USBFS_1.c ****     #if (USBFS_1_EP_MANAGEMENT_DMA_AUTO)
 558:Generated_Source\PSoC5/USBFS_1.c ****         #if (CY_PSOC4)
 559:Generated_Source\PSoC5/USBFS_1.c ****             /* Enable DMA interrupt to handle DMA management. */
 560:Generated_Source\PSoC5/USBFS_1.c ****             CyIntEnable(CYDMA_INTR_NUMBER);
 561:Generated_Source\PSoC5/USBFS_1.c ****         #else
 562:Generated_Source\PSoC5/USBFS_1.c ****             #if (USBFS_1_EP_DMA_AUTO_OPT == 0u)
 563:Generated_Source\PSoC5/USBFS_1.c ****                 /* Initialize interrupts which handle verification of successful DMA transaction. *
 564:Generated_Source\PSoC5/USBFS_1.c ****                 USBFS_1_EP_DMA_Done_isr_StartEx(&USBFS_1_EP_DMA_DONE_ISR);
 565:Generated_Source\PSoC5/USBFS_1.c ****                 USBFS_1_EP17_DMA_Done_SR_InterruptEnable();
 566:Generated_Source\PSoC5/USBFS_1.c ****                 USBFS_1_EP8_DMA_Done_SR_InterruptEnable();
 567:Generated_Source\PSoC5/USBFS_1.c ****             #endif /* (USBFS_1_EP_DMA_AUTO_OPT == 0u) */
 568:Generated_Source\PSoC5/USBFS_1.c ****         #endif /* (CY_PSOC4) */
 569:Generated_Source\PSoC5/USBFS_1.c ****     #endif /* (USBFS_1_EP_MANAGEMENT_DMA_AUTO) */
ARM GAS  C:\Users\Alex\AppData\Local\Temp\ccapzahD.s 			page 16


 570:Generated_Source\PSoC5/USBFS_1.c **** #endif /* (USBFS_1_EP_MANAGEMENT_DMA) */
 571:Generated_Source\PSoC5/USBFS_1.c **** 
 572:Generated_Source\PSoC5/USBFS_1.c ****     /* Enable USB regulator depends on operation voltage. IMO Locking is enabled in Init(). */
 573:Generated_Source\PSoC5/USBFS_1.c ****     switch(mode)
 285              		.loc 1 573 0
 286 0052 11B1     		cbz	r1, .L9
 287 0054 0129     		cmp	r1, #1
 288 0056 06D0     		beq	.L10
 289 0058 0BE0     		b	.L12
 290              	.L9:
 574:Generated_Source\PSoC5/USBFS_1.c ****     {
 575:Generated_Source\PSoC5/USBFS_1.c ****     case USBFS_1_3V_OPERATION:
 576:Generated_Source\PSoC5/USBFS_1.c ****         /* Disable regulator for 3V operation. */
 577:Generated_Source\PSoC5/USBFS_1.c ****         USBFS_1_CR1_REG &= (uint8) ~USBFS_1_CR1_REG_ENABLE;
 291              		.loc 1 577 0
 292 005a 194A     		ldr	r2, .L14+40
 293 005c 1378     		ldrb	r3, [r2]	@ zero_extendqisi2
 294 005e 03F0FE03 		and	r3, r3, #254
 295 0062 1370     		strb	r3, [r2]
 578:Generated_Source\PSoC5/USBFS_1.c ****         break;
 296              		.loc 1 578 0
 297 0064 0AE0     		b	.L11
 298              	.L10:
 579:Generated_Source\PSoC5/USBFS_1.c **** 
 580:Generated_Source\PSoC5/USBFS_1.c ****     case USBFS_1_5V_OPERATION:
 581:Generated_Source\PSoC5/USBFS_1.c ****         /* Enable regulator for 5V operation. */
 582:Generated_Source\PSoC5/USBFS_1.c ****         USBFS_1_CR1_REG |= (uint8)  USBFS_1_CR1_REG_ENABLE;
 299              		.loc 1 582 0
 300 0066 164A     		ldr	r2, .L14+40
 301 0068 1378     		ldrb	r3, [r2]	@ zero_extendqisi2
 302 006a 43F00103 		orr	r3, r3, #1
 303 006e 1370     		strb	r3, [r2]
 583:Generated_Source\PSoC5/USBFS_1.c ****         break;
 304              		.loc 1 583 0
 305 0070 04E0     		b	.L11
 306              	.L12:
 584:Generated_Source\PSoC5/USBFS_1.c **** 
 585:Generated_Source\PSoC5/USBFS_1.c ****     default: /* Check DWR settings of USB power supply. */
 586:Generated_Source\PSoC5/USBFS_1.c ****     #if (USBFS_1_VDDD_MV < USBFS_1_3500MV)
 587:Generated_Source\PSoC5/USBFS_1.c ****         /* Disable regulator for 3V operation. */
 588:Generated_Source\PSoC5/USBFS_1.c ****         USBFS_1_CR1_REG &= (uint8) ~USBFS_1_CR1_REG_ENABLE;
 589:Generated_Source\PSoC5/USBFS_1.c ****     #else
 590:Generated_Source\PSoC5/USBFS_1.c ****         /* Enable regulator for 5V operation. */
 591:Generated_Source\PSoC5/USBFS_1.c ****         USBFS_1_CR1_REG |= (uint8)  USBFS_1_CR1_REG_ENABLE;
 307              		.loc 1 591 0
 308 0072 134A     		ldr	r2, .L14+40
 309 0074 1378     		ldrb	r3, [r2]	@ zero_extendqisi2
 310 0076 43F00103 		orr	r3, r3, #1
 311 007a 1370     		strb	r3, [r2]
 312              	.L11:
 592:Generated_Source\PSoC5/USBFS_1.c ****     #endif /* (USBFS_1_VDDD_MV < USBFS_1_3500MV) */
 593:Generated_Source\PSoC5/USBFS_1.c ****         break;
 594:Generated_Source\PSoC5/USBFS_1.c ****     }
 595:Generated_Source\PSoC5/USBFS_1.c **** 
 596:Generated_Source\PSoC5/USBFS_1.c **** #if (CY_PSOC4)
 597:Generated_Source\PSoC5/USBFS_1.c ****     /* Clear bus activity. */
 598:Generated_Source\PSoC5/USBFS_1.c ****     USBFS_1_CR1_REG &= (uint32) ~USBFS_1_CR1_BUS_ACTIVITY;
ARM GAS  C:\Users\Alex\AppData\Local\Temp\ccapzahD.s 			page 17


 599:Generated_Source\PSoC5/USBFS_1.c **** 
 600:Generated_Source\PSoC5/USBFS_1.c ****     /* Clear EP0 count register. */
 601:Generated_Source\PSoC5/USBFS_1.c ****     USBFS_1_EP0_CNT_REG = USBFS_1_CLEAR_REG;
 602:Generated_Source\PSoC5/USBFS_1.c **** 
 603:Generated_Source\PSoC5/USBFS_1.c ****     /* Set EP0.CR: ACK Setup, NAK IN/OUT. */
 604:Generated_Source\PSoC5/USBFS_1.c ****     USBFS_1_EP0_CR_REG = USBFS_1_MODE_NAK_IN_OUT;
 605:Generated_Source\PSoC5/USBFS_1.c **** 
 606:Generated_Source\PSoC5/USBFS_1.c ****     #if (USBFS_1_LPM_ACTIVE)
 607:Generated_Source\PSoC5/USBFS_1.c ****         if (NULL != USBFS_1_GetBOSPtr())
 608:Generated_Source\PSoC5/USBFS_1.c ****         {
 609:Generated_Source\PSoC5/USBFS_1.c ****             /* Enable LPM and acknowledge LPM packets for active device.
 610:Generated_Source\PSoC5/USBFS_1.c ****             * Reset NYET_EN and SUB_RESP bits in the LPM_CTRL register.
 611:Generated_Source\PSoC5/USBFS_1.c ****             */
 612:Generated_Source\PSoC5/USBFS_1.c ****             USBFS_1_LPM_CTRL_REG = (USBFS_1_LPM_CTRL_LPM_EN | \
 613:Generated_Source\PSoC5/USBFS_1.c ****                                              USBFS_1_LPM_CTRL_LPM_ACK_RESP);
 614:Generated_Source\PSoC5/USBFS_1.c ****         }
 615:Generated_Source\PSoC5/USBFS_1.c ****         else
 616:Generated_Source\PSoC5/USBFS_1.c ****         {
 617:Generated_Source\PSoC5/USBFS_1.c ****             /* Disable LPM for active device. */
 618:Generated_Source\PSoC5/USBFS_1.c ****             USBFS_1_LPM_CTRL_REG &= (uint32) ~USBFS_1_LPM_CTRL_LPM_EN;
 619:Generated_Source\PSoC5/USBFS_1.c ****         }
 620:Generated_Source\PSoC5/USBFS_1.c ****     #endif /* (USBFS_1_LPM_ACTIVE) */
 621:Generated_Source\PSoC5/USBFS_1.c **** 
 622:Generated_Source\PSoC5/USBFS_1.c ****     /* Enable device to responds to USB traffic with address 0. */
 623:Generated_Source\PSoC5/USBFS_1.c ****     USBFS_1_CR0_REG = USBFS_1_DEFUALT_CR0;
 624:Generated_Source\PSoC5/USBFS_1.c **** 
 625:Generated_Source\PSoC5/USBFS_1.c **** #else
 626:Generated_Source\PSoC5/USBFS_1.c ****     /* Set EP0.CR: ACK Setup, STALL IN/OUT. */
 627:Generated_Source\PSoC5/USBFS_1.c ****     USBFS_1_EP0_CR_REG = USBFS_1_MODE_STALL_IN_OUT;
 313              		.loc 1 627 0
 314 007c 0322     		movs	r2, #3
 315 007e 114B     		ldr	r3, .L14+44
 316 0080 1A70     		strb	r2, [r3]
 628:Generated_Source\PSoC5/USBFS_1.c **** 
 629:Generated_Source\PSoC5/USBFS_1.c ****     /* Enable device to respond to USB traffic with address 0. */
 630:Generated_Source\PSoC5/USBFS_1.c ****     USBFS_1_CR0_REG = USBFS_1_DEFUALT_CR0;
 317              		.loc 1 630 0
 318 0082 8022     		movs	r2, #128
 319 0084 203B     		subs	r3, r3, #32
 320 0086 1A70     		strb	r2, [r3]
 631:Generated_Source\PSoC5/USBFS_1.c ****     CyDelayCycles(USBFS_1_WAIT_CR0_REG_STABILITY);
 321              		.loc 1 631 0
 322 0088 0120     		movs	r0, #1
 323              	.LVL26:
 324 008a FFF7FEFF 		bl	CyDelayCycles
 325              	.LVL27:
 632:Generated_Source\PSoC5/USBFS_1.c **** #endif /* (CY_PSOC4) */
 633:Generated_Source\PSoC5/USBFS_1.c **** 
 634:Generated_Source\PSoC5/USBFS_1.c ****     /* Enable D+ pull-up and keep USB control on IO. */
 635:Generated_Source\PSoC5/USBFS_1.c ****     USBFS_1_USBIO_CR1_REG = USBFS_1_USBIO_CR1_USBPUEN;
 326              		.loc 1 635 0
 327 008e 0422     		movs	r2, #4
 328 0090 0D4B     		ldr	r3, .L14+48
 329 0092 1A70     		strb	r2, [r3]
 330 0094 10BD     		pop	{r4, pc}
 331              	.L15:
 332 0096 00BF     		.align	2
ARM GAS  C:\Users\Alex\AppData\Local\Temp\ccapzahD.s 			page 18


 333              	.L14:
 334 0098 00000000 		.word	USBFS_1_hidProtocol
 335 009c 00000000 		.word	USBFS_1_device
 336 00a0 00000000 		.word	USBFS_1_transferState
 337 00a4 00000000 		.word	USBFS_1_configurationChanged
 338 00a8 00000000 		.word	USBFS_1_configuration
 339 00ac 00000000 		.word	USBFS_1_interfaceNumber
 340 00b0 00000000 		.word	USBFS_1_deviceAddress
 341 00b4 00000000 		.word	USBFS_1_deviceStatus
 342 00b8 00000000 		.word	USBFS_1_lastPacketSize
 343 00bc 00E100E0 		.word	-536813312
 344 00c0 09600040 		.word	1073766409
 345 00c4 28600040 		.word	1073766440
 346 00c8 12600040 		.word	1073766418
 347              		.cfi_endproc
 348              	.LFE2:
 349              		.size	USBFS_1_InitComponent, .-USBFS_1_InitComponent
 350              		.section	.text.USBFS_1_Start,"ax",%progbits
 351              		.align	2
 352              		.global	USBFS_1_Start
 353              		.thumb
 354              		.thumb_func
 355              		.type	USBFS_1_Start, %function
 356              	USBFS_1_Start:
 357              	.LFB0:
 187:Generated_Source\PSoC5/USBFS_1.c ****     if (0u == USBFS_1_initVar)
 358              		.loc 1 187 0
 359              		.cfi_startproc
 360              		@ args = 0, pretend = 0, frame = 0
 361              		@ frame_needed = 0, uses_anonymous_args = 0
 362              	.LVL28:
 363 0000 38B5     		push	{r3, r4, r5, lr}
 364              		.cfi_def_cfa_offset 16
 365              		.cfi_offset 3, -16
 366              		.cfi_offset 4, -12
 367              		.cfi_offset 5, -8
 368              		.cfi_offset 14, -4
 369 0002 0446     		mov	r4, r0
 370 0004 0D46     		mov	r5, r1
 188:Generated_Source\PSoC5/USBFS_1.c ****     {
 371              		.loc 1 188 0
 372 0006 064B     		ldr	r3, .L19
 373 0008 1B78     		ldrb	r3, [r3]	@ zero_extendqisi2
 374 000a 23B9     		cbnz	r3, .L17
 190:Generated_Source\PSoC5/USBFS_1.c ****         USBFS_1_initVar = 1u;
 375              		.loc 1 190 0
 376 000c FFF7FEFF 		bl	USBFS_1_Init
 377              	.LVL29:
 191:Generated_Source\PSoC5/USBFS_1.c ****     }
 378              		.loc 1 191 0
 379 0010 0122     		movs	r2, #1
 380 0012 034B     		ldr	r3, .L19
 381 0014 1A70     		strb	r2, [r3]
 382              	.L17:
 194:Generated_Source\PSoC5/USBFS_1.c **** }
 383              		.loc 1 194 0
 384 0016 2946     		mov	r1, r5
ARM GAS  C:\Users\Alex\AppData\Local\Temp\ccapzahD.s 			page 19


 385 0018 2046     		mov	r0, r4
 386 001a FFF7FEFF 		bl	USBFS_1_InitComponent
 387              	.LVL30:
 388 001e 38BD     		pop	{r3, r4, r5, pc}
 389              	.L20:
 390              		.align	2
 391              	.L19:
 392 0020 00000000 		.word	.LANCHOR0
 393              		.cfi_endproc
 394              	.LFE0:
 395              		.size	USBFS_1_Start, .-USBFS_1_Start
 396              		.section	.text.USBFS_1_ReInitComponent,"ax",%progbits
 397              		.align	2
 398              		.global	USBFS_1_ReInitComponent
 399              		.thumb
 400              		.thumb_func
 401              		.type	USBFS_1_ReInitComponent, %function
 402              	USBFS_1_ReInitComponent:
 403              	.LFB3:
 636:Generated_Source\PSoC5/USBFS_1.c **** }
 637:Generated_Source\PSoC5/USBFS_1.c **** 
 638:Generated_Source\PSoC5/USBFS_1.c **** 
 639:Generated_Source\PSoC5/USBFS_1.c **** /*******************************************************************************
 640:Generated_Source\PSoC5/USBFS_1.c **** * Function Name: USBFS_1_ReInitComponent
 641:Generated_Source\PSoC5/USBFS_1.c **** ****************************************************************************//**
 642:Generated_Source\PSoC5/USBFS_1.c **** *
 643:Generated_Source\PSoC5/USBFS_1.c **** *  This function reinitialize the component configuration and is
 644:Generated_Source\PSoC5/USBFS_1.c **** *  intend to be called from the Reset interrupt.
 645:Generated_Source\PSoC5/USBFS_1.c **** *
 646:Generated_Source\PSoC5/USBFS_1.c **** * \globalvars
 647:Generated_Source\PSoC5/USBFS_1.c **** *   USBFS_1_device - Contains the device number of the desired Device
 648:Generated_Source\PSoC5/USBFS_1.c **** *        Descriptor. The device number can be found in the Device Descriptor tab
 649:Generated_Source\PSoC5/USBFS_1.c **** *       of the Configure dialog, under the settings of the desired Device Descriptor,
 650:Generated_Source\PSoC5/USBFS_1.c **** *       in the Device Number field.
 651:Generated_Source\PSoC5/USBFS_1.c **** *   USBFS_1_transferState - This variable is used by the communication
 652:Generated_Source\PSoC5/USBFS_1.c **** *       functions to handle the current transfer state. Initialized to
 653:Generated_Source\PSoC5/USBFS_1.c **** *       TRANS_STATE_IDLE in this API.
 654:Generated_Source\PSoC5/USBFS_1.c **** *   USBFS_1_configuration - Contains the current configuration number
 655:Generated_Source\PSoC5/USBFS_1.c **** *       set by the Host using a SET_CONFIGURATION request.
 656:Generated_Source\PSoC5/USBFS_1.c **** *       Initialized to zero in this API.
 657:Generated_Source\PSoC5/USBFS_1.c **** *   USBFS_1_deviceAddress - Contains the current device address. This
 658:Generated_Source\PSoC5/USBFS_1.c **** *       variable is initialized to zero in this API. The Host starts to communicate
 659:Generated_Source\PSoC5/USBFS_1.c **** *      to the device with address 0 and then sets it to a whatever value using
 660:Generated_Source\PSoC5/USBFS_1.c **** *      a SET_ADDRESS request.
 661:Generated_Source\PSoC5/USBFS_1.c **** *   USBFS_1_deviceStatus - Initialized to 0.
 662:Generated_Source\PSoC5/USBFS_1.c **** *       This is a two-bit variable which contains the power status in the first bit
 663:Generated_Source\PSoC5/USBFS_1.c **** *       (DEVICE_STATUS_BUS_POWERED or DEVICE_STATUS_SELF_POWERED) and the remote
 664:Generated_Source\PSoC5/USBFS_1.c **** *       wakeup status (DEVICE_STATUS_REMOTE_WAKEUP) in the second bit.
 665:Generated_Source\PSoC5/USBFS_1.c **** *   USBFS_1_lastPacketSize - Initialized to 0;
 666:Generated_Source\PSoC5/USBFS_1.c **** *
 667:Generated_Source\PSoC5/USBFS_1.c **** * \reentrant
 668:Generated_Source\PSoC5/USBFS_1.c **** *  No.
 669:Generated_Source\PSoC5/USBFS_1.c **** *
 670:Generated_Source\PSoC5/USBFS_1.c **** *******************************************************************************/
 671:Generated_Source\PSoC5/USBFS_1.c **** void USBFS_1_ReInitComponent(void) 
 672:Generated_Source\PSoC5/USBFS_1.c **** {
 404              		.loc 1 672 0
ARM GAS  C:\Users\Alex\AppData\Local\Temp\ccapzahD.s 			page 20


 405              		.cfi_startproc
 406              		@ args = 0, pretend = 0, frame = 0
 407              		@ frame_needed = 0, uses_anonymous_args = 0
 408              		@ link register save eliminated.
 409              	.LVL31:
 673:Generated_Source\PSoC5/USBFS_1.c ****     /* Initialize _hidProtocol variable to comply with HID 7.2.6 Set_Protocol
 674:Generated_Source\PSoC5/USBFS_1.c ****     *  Request: "When initialized, all devices default to report protocol."
 675:Generated_Source\PSoC5/USBFS_1.c ****     */
 676:Generated_Source\PSoC5/USBFS_1.c **** #if defined(USBFS_1_ENABLE_HID_CLASS)
 677:Generated_Source\PSoC5/USBFS_1.c ****     uint8 i;
 678:Generated_Source\PSoC5/USBFS_1.c **** 
 679:Generated_Source\PSoC5/USBFS_1.c ****     for (i = 0u; i < USBFS_1_MAX_INTERFACES_NUMBER; i++)
 410              		.loc 1 679 0
 411 0000 0023     		movs	r3, #0
 412 0002 04E0     		b	.L22
 413              	.LVL32:
 414              	.L23:
 680:Generated_Source\PSoC5/USBFS_1.c ****     {
 681:Generated_Source\PSoC5/USBFS_1.c ****         USBFS_1_hidProtocol[i] = USBFS_1_PROTOCOL_REPORT;
 415              		.loc 1 681 0 discriminator 3
 416 0004 0121     		movs	r1, #1
 417 0006 0E4A     		ldr	r2, .L24
 418 0008 D154     		strb	r1, [r2, r3]
 679:Generated_Source\PSoC5/USBFS_1.c ****     {
 419              		.loc 1 679 0 discriminator 3
 420 000a 0B44     		add	r3, r3, r1
 421              	.LVL33:
 422 000c DBB2     		uxtb	r3, r3
 423              	.LVL34:
 424              	.L22:
 679:Generated_Source\PSoC5/USBFS_1.c ****     {
 425              		.loc 1 679 0 is_stmt 0 discriminator 1
 426 000e 002B     		cmp	r3, #0
 427 0010 F8D0     		beq	.L23
 682:Generated_Source\PSoC5/USBFS_1.c ****     }
 683:Generated_Source\PSoC5/USBFS_1.c **** #endif /* USBFS_1_ENABLE_HID_CLASS */
 684:Generated_Source\PSoC5/USBFS_1.c **** 
 685:Generated_Source\PSoC5/USBFS_1.c ****     /* Reset component internal variables. */
 686:Generated_Source\PSoC5/USBFS_1.c ****     USBFS_1_transferState   = USBFS_1_TRANS_STATE_IDLE;
 428              		.loc 1 686 0 is_stmt 1
 429 0012 0023     		movs	r3, #0
 430              	.LVL35:
 431 0014 0B4A     		ldr	r2, .L24+4
 432 0016 1370     		strb	r3, [r2]
 687:Generated_Source\PSoC5/USBFS_1.c ****     USBFS_1_configurationChanged = 0u;
 433              		.loc 1 687 0
 434 0018 0B4A     		ldr	r2, .L24+8
 435 001a 1370     		strb	r3, [r2]
 688:Generated_Source\PSoC5/USBFS_1.c ****     USBFS_1_configuration   = 0u;
 436              		.loc 1 688 0
 437 001c 0B4A     		ldr	r2, .L24+12
 438 001e 1370     		strb	r3, [r2]
 689:Generated_Source\PSoC5/USBFS_1.c ****     USBFS_1_interfaceNumber = 0u;
 439              		.loc 1 689 0
 440 0020 0B4A     		ldr	r2, .L24+16
 441 0022 1370     		strb	r3, [r2]
 690:Generated_Source\PSoC5/USBFS_1.c ****     USBFS_1_deviceAddress   = 0u;
ARM GAS  C:\Users\Alex\AppData\Local\Temp\ccapzahD.s 			page 21


 442              		.loc 1 690 0
 443 0024 0B4A     		ldr	r2, .L24+20
 444 0026 1370     		strb	r3, [r2]
 691:Generated_Source\PSoC5/USBFS_1.c ****     USBFS_1_deviceStatus    = 0u;
 445              		.loc 1 691 0
 446 0028 0B4A     		ldr	r2, .L24+24
 447 002a 1370     		strb	r3, [r2]
 692:Generated_Source\PSoC5/USBFS_1.c ****     USBFS_1_lastPacketSize  = 0u;
 448              		.loc 1 692 0
 449 002c 0B4A     		ldr	r2, .L24+28
 450 002e 1370     		strb	r3, [r2]
 693:Generated_Source\PSoC5/USBFS_1.c **** 
 694:Generated_Source\PSoC5/USBFS_1.c **** #if (CY_PSOC4)
 695:Generated_Source\PSoC5/USBFS_1.c ****     /* Set EP0.CR: ACK Setup, NAK IN/OUT. */
 696:Generated_Source\PSoC5/USBFS_1.c ****     USBFS_1_EP0_CR_REG = USBFS_1_MODE_NAK_IN_OUT;
 697:Generated_Source\PSoC5/USBFS_1.c **** #else
 698:Generated_Source\PSoC5/USBFS_1.c ****     /* Set EP0.CR: ACK Setup, STALL IN/OUT. */
 699:Generated_Source\PSoC5/USBFS_1.c ****     USBFS_1_EP0_CR_REG = USBFS_1_MODE_STALL_IN_OUT;
 451              		.loc 1 699 0
 452 0030 0322     		movs	r2, #3
 453 0032 0B4B     		ldr	r3, .L24+32
 454 0034 1A70     		strb	r2, [r3]
 700:Generated_Source\PSoC5/USBFS_1.c **** #endif /* (CY_PSOC4) */
 701:Generated_Source\PSoC5/USBFS_1.c **** 
 702:Generated_Source\PSoC5/USBFS_1.c ****     /* Enable device to respond to USB traffic with address 0. */
 703:Generated_Source\PSoC5/USBFS_1.c ****     USBFS_1_CR0_REG = USBFS_1_DEFUALT_CR0;
 455              		.loc 1 703 0
 456 0036 8022     		movs	r2, #128
 457 0038 203B     		subs	r3, r3, #32
 458 003a 1A70     		strb	r2, [r3]
 459 003c 7047     		bx	lr
 460              	.L25:
 461 003e 00BF     		.align	2
 462              	.L24:
 463 0040 00000000 		.word	USBFS_1_hidProtocol
 464 0044 00000000 		.word	USBFS_1_transferState
 465 0048 00000000 		.word	USBFS_1_configurationChanged
 466 004c 00000000 		.word	USBFS_1_configuration
 467 0050 00000000 		.word	USBFS_1_interfaceNumber
 468 0054 00000000 		.word	USBFS_1_deviceAddress
 469 0058 00000000 		.word	USBFS_1_deviceStatus
 470 005c 00000000 		.word	USBFS_1_lastPacketSize
 471 0060 28600040 		.word	1073766440
 472              		.cfi_endproc
 473              	.LFE3:
 474              		.size	USBFS_1_ReInitComponent, .-USBFS_1_ReInitComponent
 475              		.section	.text.USBFS_1_Stop,"ax",%progbits
 476              		.align	2
 477              		.global	USBFS_1_Stop
 478              		.thumb
 479              		.thumb_func
 480              		.type	USBFS_1_Stop, %function
 481              	USBFS_1_Stop:
 482              	.LFB4:
 704:Generated_Source\PSoC5/USBFS_1.c **** }
 705:Generated_Source\PSoC5/USBFS_1.c **** 
 706:Generated_Source\PSoC5/USBFS_1.c **** 
ARM GAS  C:\Users\Alex\AppData\Local\Temp\ccapzahD.s 			page 22


 707:Generated_Source\PSoC5/USBFS_1.c **** /*******************************************************************************
 708:Generated_Source\PSoC5/USBFS_1.c **** * Function Name: USBFS_1_Stop
 709:Generated_Source\PSoC5/USBFS_1.c **** ****************************************************************************//**
 710:Generated_Source\PSoC5/USBFS_1.c **** *
 711:Generated_Source\PSoC5/USBFS_1.c **** *  This function shuts down the USB function including to release
 712:Generated_Source\PSoC5/USBFS_1.c **** *  the D+ pull-up and disabling the SIE.
 713:Generated_Source\PSoC5/USBFS_1.c **** *
 714:Generated_Source\PSoC5/USBFS_1.c **** * \globalvars
 715:Generated_Source\PSoC5/USBFS_1.c **** *   \ref USBFS_1_configuration
 716:Generated_Source\PSoC5/USBFS_1.c **** *
 717:Generated_Source\PSoC5/USBFS_1.c **** *   USBFS_1_deviceAddress - Contains the current device address. This
 718:Generated_Source\PSoC5/USBFS_1.c **** *       variable is initialized to zero in this API. The Host starts to communicate
 719:Generated_Source\PSoC5/USBFS_1.c **** *      to the device with address 0 and then sets it to a whatever value using
 720:Generated_Source\PSoC5/USBFS_1.c **** *      a SET_ADDRESS request.
 721:Generated_Source\PSoC5/USBFS_1.c **** *
 722:Generated_Source\PSoC5/USBFS_1.c **** *   \ref USBFS_1_deviceStatus
 723:Generated_Source\PSoC5/USBFS_1.c **** *
 724:Generated_Source\PSoC5/USBFS_1.c **** *   \ref USBFS_1_configurationChanged
 725:Generated_Source\PSoC5/USBFS_1.c **** *
 726:Generated_Source\PSoC5/USBFS_1.c **** *   USBFS_1_intiVar -  This variable is set to zero
 727:Generated_Source\PSoC5/USBFS_1.c **** *
 728:Generated_Source\PSoC5/USBFS_1.c **** *******************************************************************************/
 729:Generated_Source\PSoC5/USBFS_1.c **** void USBFS_1_Stop(void) 
 730:Generated_Source\PSoC5/USBFS_1.c **** {
 483              		.loc 1 730 0
 484              		.cfi_startproc
 485              		@ args = 0, pretend = 0, frame = 0
 486              		@ frame_needed = 0, uses_anonymous_args = 0
 487 0000 08B5     		push	{r3, lr}
 488              		.cfi_def_cfa_offset 8
 489              		.cfi_offset 3, -8
 490              		.cfi_offset 14, -4
 731:Generated_Source\PSoC5/USBFS_1.c ****     uint8 enableInterrupts;
 732:Generated_Source\PSoC5/USBFS_1.c **** 
 733:Generated_Source\PSoC5/USBFS_1.c **** #if (USBFS_1_EP_MANAGEMENT_DMA)
 734:Generated_Source\PSoC5/USBFS_1.c ****     /* Stop all DMA channels. */
 735:Generated_Source\PSoC5/USBFS_1.c ****     USBFS_1_Stop_DMA(USBFS_1_MAX_EP);
 736:Generated_Source\PSoC5/USBFS_1.c **** #endif /* (USBFS_1_EP_MANAGEMENT_DMA) */
 737:Generated_Source\PSoC5/USBFS_1.c **** 
 738:Generated_Source\PSoC5/USBFS_1.c ****     enableInterrupts = CyEnterCriticalSection();
 491              		.loc 1 738 0
 492 0002 FFF7FEFF 		bl	CyEnterCriticalSection
 493              	.LVL36:
 739:Generated_Source\PSoC5/USBFS_1.c **** 
 740:Generated_Source\PSoC5/USBFS_1.c ****     /* Disable USB IP to respond to USB traffic. */
 741:Generated_Source\PSoC5/USBFS_1.c ****     USBFS_1_CR0_REG &= (uint8) ~USBFS_1_CR0_ENABLE;
 494              		.loc 1 741 0
 495 0006 214A     		ldr	r2, .L28
 496 0008 1378     		ldrb	r3, [r2]	@ zero_extendqisi2
 497 000a 03F07F03 		and	r3, r3, #127
 498 000e 1370     		strb	r3, [r2]
 742:Generated_Source\PSoC5/USBFS_1.c **** 
 743:Generated_Source\PSoC5/USBFS_1.c ****     /* Disable D+ pull-up. */
 744:Generated_Source\PSoC5/USBFS_1.c ****     USBFS_1_USBIO_CR1_REG &= (uint8) ~ USBFS_1_USBIO_CR1_USBPUEN;
 499              		.loc 1 744 0
 500 0010 0A32     		adds	r2, r2, #10
 501 0012 1378     		ldrb	r3, [r2]	@ zero_extendqisi2
ARM GAS  C:\Users\Alex\AppData\Local\Temp\ccapzahD.s 			page 23


 502 0014 03F0FB03 		and	r3, r3, #251
 503 0018 1370     		strb	r3, [r2]
 745:Generated_Source\PSoC5/USBFS_1.c **** 
 746:Generated_Source\PSoC5/USBFS_1.c **** #if (CY_PSOC4)
 747:Generated_Source\PSoC5/USBFS_1.c ****     /* Disable USBFS block. */
 748:Generated_Source\PSoC5/USBFS_1.c ****     USBFS_1_POWER_CTRL_REG &= (uint32) ~USBFS_1_POWER_CTRL_ENABLE;
 749:Generated_Source\PSoC5/USBFS_1.c **** #else
 750:Generated_Source\PSoC5/USBFS_1.c ****     /* Clear power active and standby mode templates. */
 751:Generated_Source\PSoC5/USBFS_1.c ****     USBFS_1_PM_ACT_CFG_REG  &= (uint8) ~USBFS_1_PM_ACT_EN_FSUSB;
 504              		.loc 1 751 0
 505 001a A2F5E352 		sub	r2, r2, #7264
 506 001e 0D3A     		subs	r2, r2, #13
 507 0020 1378     		ldrb	r3, [r2]	@ zero_extendqisi2
 508 0022 03F0FE03 		and	r3, r3, #254
 509 0026 1370     		strb	r3, [r2]
 752:Generated_Source\PSoC5/USBFS_1.c ****     USBFS_1_PM_STBY_CFG_REG &= (uint8) ~USBFS_1_PM_STBY_EN_FSUSB;
 510              		.loc 1 752 0
 511 0028 1032     		adds	r2, r2, #16
 512 002a 1378     		ldrb	r3, [r2]	@ zero_extendqisi2
 513 002c 03F0FE03 		and	r3, r3, #254
 514 0030 1370     		strb	r3, [r2]
 753:Generated_Source\PSoC5/USBFS_1.c **** 
 754:Generated_Source\PSoC5/USBFS_1.c ****     /* Ensure single-ended disable bits are high (PRT15.INP_DIS[7:6])
 755:Generated_Source\PSoC5/USBFS_1.c ****      * (input receiver disabled). */
 756:Generated_Source\PSoC5/USBFS_1.c ****     USBFS_1_DM_INP_DIS_REG |= (uint8) USBFS_1_DM_MASK;
 515              		.loc 1 756 0
 516 0032 174B     		ldr	r3, .L28+4
 517 0034 1A78     		ldrb	r2, [r3]	@ zero_extendqisi2
 518 0036 42F08002 		orr	r2, r2, #128
 519 003a 1A70     		strb	r2, [r3]
 757:Generated_Source\PSoC5/USBFS_1.c ****     USBFS_1_DP_INP_DIS_REG |= (uint8) USBFS_1_DP_MASK;
 520              		.loc 1 757 0
 521 003c 1A78     		ldrb	r2, [r3]	@ zero_extendqisi2
 522 003e 42F04002 		orr	r2, r2, #64
 523 0042 1A70     		strb	r2, [r3]
 758:Generated_Source\PSoC5/USBFS_1.c **** 
 759:Generated_Source\PSoC5/USBFS_1.c **** #endif /* (CY_PSOC4) */
 760:Generated_Source\PSoC5/USBFS_1.c **** 
 761:Generated_Source\PSoC5/USBFS_1.c ****     CyExitCriticalSection(enableInterrupts);
 524              		.loc 1 761 0
 525 0044 FFF7FEFF 		bl	CyExitCriticalSection
 526              	.LVL37:
 762:Generated_Source\PSoC5/USBFS_1.c **** 
 763:Generated_Source\PSoC5/USBFS_1.c ****     /* Disable component interrupts. */
 764:Generated_Source\PSoC5/USBFS_1.c **** #if (CY_PSOC4)
 765:Generated_Source\PSoC5/USBFS_1.c ****     CyIntDisable(USBFS_1_INTR_HI_VECT_NUM);
 766:Generated_Source\PSoC5/USBFS_1.c ****     CyIntDisable(USBFS_1_INTR_LO_VECT_NUM);
 767:Generated_Source\PSoC5/USBFS_1.c ****     CyIntDisable(USBFS_1_INTR_MED_VECT_NUM);
 768:Generated_Source\PSoC5/USBFS_1.c **** #else
 769:Generated_Source\PSoC5/USBFS_1.c **** 
 770:Generated_Source\PSoC5/USBFS_1.c ****     CyIntDisable(USBFS_1_BUS_RESET_VECT_NUM);
 527              		.loc 1 770 0
 528 0048 124B     		ldr	r3, .L28+8
 529 004a 4FF40002 		mov	r2, #8388608
 530 004e 1A60     		str	r2, [r3]
 771:Generated_Source\PSoC5/USBFS_1.c ****     CyIntDisable(USBFS_1_EP_0_VECT_NUM);
 531              		.loc 1 771 0
ARM GAS  C:\Users\Alex\AppData\Local\Temp\ccapzahD.s 			page 24


 532 0050 4FF08072 		mov	r2, #16777216
 533 0054 1A60     		str	r2, [r3]
 772:Generated_Source\PSoC5/USBFS_1.c **** 
 773:Generated_Source\PSoC5/USBFS_1.c ****     #if (USBFS_1_SOF_ISR_ACTIVE)
 774:Generated_Source\PSoC5/USBFS_1.c ****         CyIntDisable(USBFS_1_SOF_VECT_NUM);
 534              		.loc 1 774 0
 535 0056 4FF40012 		mov	r2, #2097152
 536 005a 1A60     		str	r2, [r3]
 775:Generated_Source\PSoC5/USBFS_1.c ****     #endif /* (USBFS_1_SOF_ISR_ACTIVE) */
 776:Generated_Source\PSoC5/USBFS_1.c **** 
 777:Generated_Source\PSoC5/USBFS_1.c ****     #if (USBFS_1_EP1_ISR_ACTIVE)
 778:Generated_Source\PSoC5/USBFS_1.c ****         CyIntDisable(USBFS_1_EP_1_VECT_NUM);
 537              		.loc 1 778 0
 538 005c 0222     		movs	r2, #2
 539 005e 1A60     		str	r2, [r3]
 779:Generated_Source\PSoC5/USBFS_1.c ****     #endif /* (USBFS_1_EP1_ISR_ACTIVE) */
 780:Generated_Source\PSoC5/USBFS_1.c **** 
 781:Generated_Source\PSoC5/USBFS_1.c ****     #if (USBFS_1_EP2_ISR_ACTIVE)
 782:Generated_Source\PSoC5/USBFS_1.c ****         CyIntDisable(USBFS_1_EP_2_VECT_NUM);
 540              		.loc 1 782 0
 541 0060 0422     		movs	r2, #4
 542 0062 1A60     		str	r2, [r3]
 783:Generated_Source\PSoC5/USBFS_1.c ****     #endif /* (USBFS_1_EP2_ISR_ACTIVE) */
 784:Generated_Source\PSoC5/USBFS_1.c **** 
 785:Generated_Source\PSoC5/USBFS_1.c ****     #if (USBFS_1_EP3_ISR_ACTIVE)
 786:Generated_Source\PSoC5/USBFS_1.c ****         CyIntDisable(USBFS_1_EP_3_VECT_NUM);
 787:Generated_Source\PSoC5/USBFS_1.c ****     #endif /* (USBFS_1_EP3_ISR_ACTIVE) */
 788:Generated_Source\PSoC5/USBFS_1.c **** 
 789:Generated_Source\PSoC5/USBFS_1.c ****     #if (USBFS_1_EP4_ISR_ACTIVE)
 790:Generated_Source\PSoC5/USBFS_1.c ****         CyIntDisable(USBFS_1_EP_4_VECT_NUM);
 791:Generated_Source\PSoC5/USBFS_1.c ****     #endif /* (USBFS_1_EP4_ISR_ACTIVE) */
 792:Generated_Source\PSoC5/USBFS_1.c **** 
 793:Generated_Source\PSoC5/USBFS_1.c ****     #if (USBFS_1_EP5_ISR_ACTIVE)
 794:Generated_Source\PSoC5/USBFS_1.c ****         CyIntDisable(USBFS_1_EP_5_VECT_NUM);
 795:Generated_Source\PSoC5/USBFS_1.c ****     #endif /* (USBFS_1_EP5_ISR_ACTIVE) */
 796:Generated_Source\PSoC5/USBFS_1.c **** 
 797:Generated_Source\PSoC5/USBFS_1.c ****     #if (USBFS_1_EP6_ISR_ACTIVE)
 798:Generated_Source\PSoC5/USBFS_1.c ****         CyIntDisable(USBFS_1_EP_6_VECT_NUM);
 799:Generated_Source\PSoC5/USBFS_1.c ****     #endif /* USBFS_1_EP6_ISR_REMOVE */
 800:Generated_Source\PSoC5/USBFS_1.c **** 
 801:Generated_Source\PSoC5/USBFS_1.c ****     #if (USBFS_1_EP7_ISR_ACTIVE)
 802:Generated_Source\PSoC5/USBFS_1.c ****         CyIntDisable(USBFS_1_EP_7_VECT_NUM);
 803:Generated_Source\PSoC5/USBFS_1.c ****     #endif /* (USBFS_1_EP7_ISR_ACTIVE) */
 804:Generated_Source\PSoC5/USBFS_1.c **** 
 805:Generated_Source\PSoC5/USBFS_1.c ****     #if (USBFS_1_EP8_ISR_ACTIVE)
 806:Generated_Source\PSoC5/USBFS_1.c ****         CyIntDisable(USBFS_1_EP_8_VECT_NUM);
 807:Generated_Source\PSoC5/USBFS_1.c ****     #endif /* (USBFS_1_EP8_ISR_ACTIVE) */
 808:Generated_Source\PSoC5/USBFS_1.c **** 
 809:Generated_Source\PSoC5/USBFS_1.c ****     #if (USBFS_1_DP_ISR_ACTIVE)
 810:Generated_Source\PSoC5/USBFS_1.c ****         /* Clear active mode Dp interrupt source history. */
 811:Generated_Source\PSoC5/USBFS_1.c ****         (void) USBFS_1_Dp_ClearInterrupt();
 543              		.loc 1 811 0
 544 0064 FFF7FEFF 		bl	USBFS_1_Dp_ClearInterrupt
 545              	.LVL38:
 812:Generated_Source\PSoC5/USBFS_1.c ****         CyIntClearPending(USBFS_1_DP_INTC_VECT_NUM);
 546              		.loc 1 812 0
 547 0068 4FF48052 		mov	r2, #4096
ARM GAS  C:\Users\Alex\AppData\Local\Temp\ccapzahD.s 			page 25


 548 006c 0A4B     		ldr	r3, .L28+12
 549 006e 1A60     		str	r2, [r3]
 813:Generated_Source\PSoC5/USBFS_1.c ****     #endif /* (USBFS_1_DP_ISR_ACTIVE). */
 814:Generated_Source\PSoC5/USBFS_1.c **** 
 815:Generated_Source\PSoC5/USBFS_1.c **** #endif /* (CY_PSOC4) */
 816:Generated_Source\PSoC5/USBFS_1.c **** 
 817:Generated_Source\PSoC5/USBFS_1.c ****     /* Reset component internal variables. */
 818:Generated_Source\PSoC5/USBFS_1.c ****     USBFS_1_configurationChanged = 0u;
 550              		.loc 1 818 0
 551 0070 0023     		movs	r3, #0
 552 0072 0A4A     		ldr	r2, .L28+16
 553 0074 1370     		strb	r3, [r2]
 819:Generated_Source\PSoC5/USBFS_1.c ****     USBFS_1_configuration   = 0u;
 554              		.loc 1 819 0
 555 0076 0A4A     		ldr	r2, .L28+20
 556 0078 1370     		strb	r3, [r2]
 820:Generated_Source\PSoC5/USBFS_1.c ****     USBFS_1_interfaceNumber = 0u;
 557              		.loc 1 820 0
 558 007a 0A4A     		ldr	r2, .L28+24
 559 007c 1370     		strb	r3, [r2]
 821:Generated_Source\PSoC5/USBFS_1.c ****     USBFS_1_deviceAddress   = 0u;
 560              		.loc 1 821 0
 561 007e 0A4A     		ldr	r2, .L28+28
 562 0080 1370     		strb	r3, [r2]
 822:Generated_Source\PSoC5/USBFS_1.c ****     USBFS_1_deviceStatus    = 0u;
 563              		.loc 1 822 0
 564 0082 0A4A     		ldr	r2, .L28+32
 565 0084 1370     		strb	r3, [r2]
 823:Generated_Source\PSoC5/USBFS_1.c **** 
 824:Generated_Source\PSoC5/USBFS_1.c ****     /* It is mandatory for correct device startup. */
 825:Generated_Source\PSoC5/USBFS_1.c ****     USBFS_1_initVar = 0u;
 566              		.loc 1 825 0
 567 0086 0A4A     		ldr	r2, .L28+36
 568 0088 1370     		strb	r3, [r2]
 569 008a 08BD     		pop	{r3, pc}
 570              	.L29:
 571              		.align	2
 572              	.L28:
 573 008c 08600040 		.word	1073766408
 574 0090 F8510040 		.word	1073762808
 575 0094 80E100E0 		.word	-536813184
 576 0098 80E200E0 		.word	-536812928
 577 009c 00000000 		.word	USBFS_1_configurationChanged
 578 00a0 00000000 		.word	USBFS_1_configuration
 579 00a4 00000000 		.word	USBFS_1_interfaceNumber
 580 00a8 00000000 		.word	USBFS_1_deviceAddress
 581 00ac 00000000 		.word	USBFS_1_deviceStatus
 582 00b0 00000000 		.word	.LANCHOR0
 583              		.cfi_endproc
 584              	.LFE4:
 585              		.size	USBFS_1_Stop, .-USBFS_1_Stop
 586              		.section	.text.USBFS_1_CheckActivity,"ax",%progbits
 587              		.align	2
 588              		.global	USBFS_1_CheckActivity
 589              		.thumb
 590              		.thumb_func
 591              		.type	USBFS_1_CheckActivity, %function
ARM GAS  C:\Users\Alex\AppData\Local\Temp\ccapzahD.s 			page 26


 592              	USBFS_1_CheckActivity:
 593              	.LFB5:
 826:Generated_Source\PSoC5/USBFS_1.c **** }
 827:Generated_Source\PSoC5/USBFS_1.c **** 
 828:Generated_Source\PSoC5/USBFS_1.c **** 
 829:Generated_Source\PSoC5/USBFS_1.c **** /*******************************************************************************
 830:Generated_Source\PSoC5/USBFS_1.c **** * Function Name: USBFS_1_CheckActivity
 831:Generated_Source\PSoC5/USBFS_1.c **** ****************************************************************************//**
 832:Generated_Source\PSoC5/USBFS_1.c **** *
 833:Generated_Source\PSoC5/USBFS_1.c **** *  This function returns the activity status of the bus. It clears the hardware
 834:Generated_Source\PSoC5/USBFS_1.c **** *  status to provide updated status on the next call of this function. It
 835:Generated_Source\PSoC5/USBFS_1.c **** *  provides a way to determine whether any USB bus activity occurred. The
 836:Generated_Source\PSoC5/USBFS_1.c **** *  application should use this function to determine if the USB suspend
 837:Generated_Source\PSoC5/USBFS_1.c **** *  conditions are met.
 838:Generated_Source\PSoC5/USBFS_1.c **** *
 839:Generated_Source\PSoC5/USBFS_1.c **** *
 840:Generated_Source\PSoC5/USBFS_1.c **** * \return
 841:Generated_Source\PSoC5/USBFS_1.c **** *  cystatus: Status of the bus since the last call of the function.
 842:Generated_Source\PSoC5/USBFS_1.c **** *  Return Value |   Description
 843:Generated_Source\PSoC5/USBFS_1.c **** *  -------------|---------------------------------------------------------------
 844:Generated_Source\PSoC5/USBFS_1.c **** *  1            |Bus activity was detected since the last call to this function
 845:Generated_Source\PSoC5/USBFS_1.c **** *  0            |Bus activity was not detected since the last call to this function
 846:Generated_Source\PSoC5/USBFS_1.c **** *
 847:Generated_Source\PSoC5/USBFS_1.c **** *
 848:Generated_Source\PSoC5/USBFS_1.c **** *******************************************************************************/
 849:Generated_Source\PSoC5/USBFS_1.c **** uint8 USBFS_1_CheckActivity(void) 
 850:Generated_Source\PSoC5/USBFS_1.c **** {
 594              		.loc 1 850 0
 595              		.cfi_startproc
 596              		@ args = 0, pretend = 0, frame = 0
 597              		@ frame_needed = 0, uses_anonymous_args = 0
 598              		@ link register save eliminated.
 851:Generated_Source\PSoC5/USBFS_1.c ****     uint8 cr1Reg = USBFS_1_CR1_REG;
 599              		.loc 1 851 0
 600 0000 064A     		ldr	r2, .L32
 601 0002 1378     		ldrb	r3, [r2]	@ zero_extendqisi2
 602 0004 DBB2     		uxtb	r3, r3
 603              	.LVL39:
 852:Generated_Source\PSoC5/USBFS_1.c **** 
 853:Generated_Source\PSoC5/USBFS_1.c ****     /* Clear bus activity. */
 854:Generated_Source\PSoC5/USBFS_1.c ****     USBFS_1_CR1_REG = (cr1Reg & (uint8) ~USBFS_1_CR1_BUS_ACTIVITY);
 604              		.loc 1 854 0
 605 0006 03F0FB01 		and	r1, r3, #251
 606 000a 1170     		strb	r1, [r2]
 607 000c 03F00403 		and	r3, r3, #4
 608              	.LVL40:
 855:Generated_Source\PSoC5/USBFS_1.c **** 
 856:Generated_Source\PSoC5/USBFS_1.c ****     /* Get bus activity. */
 857:Generated_Source\PSoC5/USBFS_1.c ****     return ((0u != (cr1Reg & USBFS_1_CR1_BUS_ACTIVITY)) ? (1u) : (0u));
 609              		.loc 1 857 0
 610 0010 03F0FF00 		and	r0, r3, #255
 611 0014 03B1     		cbz	r3, .L31
 612 0016 0120     		movs	r0, #1
 613              	.L31:
 858:Generated_Source\PSoC5/USBFS_1.c **** }
 614              		.loc 1 858 0 discriminator 4
 615 0018 7047     		bx	lr
ARM GAS  C:\Users\Alex\AppData\Local\Temp\ccapzahD.s 			page 27


 616              	.L33:
 617 001a 00BF     		.align	2
 618              	.L32:
 619 001c 09600040 		.word	1073766409
 620              		.cfi_endproc
 621              	.LFE5:
 622              		.size	USBFS_1_CheckActivity, .-USBFS_1_CheckActivity
 623              		.section	.text.USBFS_1_GetConfiguration,"ax",%progbits
 624              		.align	2
 625              		.global	USBFS_1_GetConfiguration
 626              		.thumb
 627              		.thumb_func
 628              		.type	USBFS_1_GetConfiguration, %function
 629              	USBFS_1_GetConfiguration:
 630              	.LFB6:
 859:Generated_Source\PSoC5/USBFS_1.c **** 
 860:Generated_Source\PSoC5/USBFS_1.c **** 
 861:Generated_Source\PSoC5/USBFS_1.c **** /*******************************************************************************
 862:Generated_Source\PSoC5/USBFS_1.c **** * Function Name: USBFS_1_GetConfiguration
 863:Generated_Source\PSoC5/USBFS_1.c **** ****************************************************************************//**
 864:Generated_Source\PSoC5/USBFS_1.c **** *
 865:Generated_Source\PSoC5/USBFS_1.c **** *  This function gets the current configuration of the USB device.
 866:Generated_Source\PSoC5/USBFS_1.c **** *
 867:Generated_Source\PSoC5/USBFS_1.c **** * \return
 868:Generated_Source\PSoC5/USBFS_1.c **** *  Returns the currently assigned configuration. Returns 0 if the device
 869:Generated_Source\PSoC5/USBFS_1.c **** *  is not configured
 870:Generated_Source\PSoC5/USBFS_1.c **** *
 871:Generated_Source\PSoC5/USBFS_1.c **** *******************************************************************************/
 872:Generated_Source\PSoC5/USBFS_1.c **** uint8 USBFS_1_GetConfiguration(void) 
 873:Generated_Source\PSoC5/USBFS_1.c **** {
 631              		.loc 1 873 0
 632              		.cfi_startproc
 633              		@ args = 0, pretend = 0, frame = 0
 634              		@ frame_needed = 0, uses_anonymous_args = 0
 635              		@ link register save eliminated.
 874:Generated_Source\PSoC5/USBFS_1.c ****     return (USBFS_1_configuration);
 636              		.loc 1 874 0
 637 0000 014B     		ldr	r3, .L35
 638 0002 1878     		ldrb	r0, [r3]	@ zero_extendqisi2
 875:Generated_Source\PSoC5/USBFS_1.c **** }
 639              		.loc 1 875 0
 640 0004 7047     		bx	lr
 641              	.L36:
 642 0006 00BF     		.align	2
 643              	.L35:
 644 0008 00000000 		.word	USBFS_1_configuration
 645              		.cfi_endproc
 646              	.LFE6:
 647              		.size	USBFS_1_GetConfiguration, .-USBFS_1_GetConfiguration
 648              		.section	.text.USBFS_1_IsConfigurationChanged,"ax",%progbits
 649              		.align	2
 650              		.global	USBFS_1_IsConfigurationChanged
 651              		.thumb
 652              		.thumb_func
 653              		.type	USBFS_1_IsConfigurationChanged, %function
 654              	USBFS_1_IsConfigurationChanged:
 655              	.LFB7:
ARM GAS  C:\Users\Alex\AppData\Local\Temp\ccapzahD.s 			page 28


 876:Generated_Source\PSoC5/USBFS_1.c **** 
 877:Generated_Source\PSoC5/USBFS_1.c **** 
 878:Generated_Source\PSoC5/USBFS_1.c **** /*******************************************************************************
 879:Generated_Source\PSoC5/USBFS_1.c **** * Function Name: USBFS_1_IsConfigurationChanged
 880:Generated_Source\PSoC5/USBFS_1.c **** ****************************************************************************//**
 881:Generated_Source\PSoC5/USBFS_1.c **** *
 882:Generated_Source\PSoC5/USBFS_1.c **** *  This function returns the clear-on-read configuration state.  It is useful
 883:Generated_Source\PSoC5/USBFS_1.c **** *  when the host sends double SET_CONFIGURATION request with the same 
 884:Generated_Source\PSoC5/USBFS_1.c **** *  configuration number or changes alternate settings of the interface. 
 885:Generated_Source\PSoC5/USBFS_1.c **** *  After configuration has been changed the OUT endpoints must be enabled and IN 
 886:Generated_Source\PSoC5/USBFS_1.c **** *  endpoint must be loaded with data to start communication with the host.
 887:Generated_Source\PSoC5/USBFS_1.c **** *
 888:Generated_Source\PSoC5/USBFS_1.c **** * \return
 889:Generated_Source\PSoC5/USBFS_1.c **** *  None-zero value when new configuration has been changed, otherwise zero is
 890:Generated_Source\PSoC5/USBFS_1.c **** *  returned.
 891:Generated_Source\PSoC5/USBFS_1.c **** *
 892:Generated_Source\PSoC5/USBFS_1.c **** * \globalvars
 893:Generated_Source\PSoC5/USBFS_1.c **** *
 894:Generated_Source\PSoC5/USBFS_1.c **** *  \ref USBFS_1_configurationChanged - This variable is set to 1 after
 895:Generated_Source\PSoC5/USBFS_1.c **** *   a SET_CONFIGURATION request and cleared in this function.
 896:Generated_Source\PSoC5/USBFS_1.c **** *
 897:Generated_Source\PSoC5/USBFS_1.c **** *******************************************************************************/
 898:Generated_Source\PSoC5/USBFS_1.c **** uint8 USBFS_1_IsConfigurationChanged(void) 
 899:Generated_Source\PSoC5/USBFS_1.c **** {
 656              		.loc 1 899 0
 657              		.cfi_startproc
 658              		@ args = 0, pretend = 0, frame = 0
 659              		@ frame_needed = 0, uses_anonymous_args = 0
 660              		@ link register save eliminated.
 661              	.LVL41:
 900:Generated_Source\PSoC5/USBFS_1.c ****     uint8 res = 0u;
 901:Generated_Source\PSoC5/USBFS_1.c **** 
 902:Generated_Source\PSoC5/USBFS_1.c ****     if (USBFS_1_configurationChanged != 0u)
 662              		.loc 1 902 0
 663 0000 064B     		ldr	r3, .L40
 664 0002 1B78     		ldrb	r3, [r3]	@ zero_extendqisi2
 665 0004 13F0FF0F 		tst	r3, #255
 666 0008 05D0     		beq	.L39
 903:Generated_Source\PSoC5/USBFS_1.c ****     {
 904:Generated_Source\PSoC5/USBFS_1.c ****         res = USBFS_1_configurationChanged;
 667              		.loc 1 904 0
 668 000a 044B     		ldr	r3, .L40
 669 000c 1878     		ldrb	r0, [r3]	@ zero_extendqisi2
 670 000e C0B2     		uxtb	r0, r0
 671              	.LVL42:
 905:Generated_Source\PSoC5/USBFS_1.c ****         USBFS_1_configurationChanged = 0u;
 672              		.loc 1 905 0
 673 0010 0022     		movs	r2, #0
 674 0012 1A70     		strb	r2, [r3]
 675 0014 7047     		bx	lr
 676              	.LVL43:
 677              	.L39:
 900:Generated_Source\PSoC5/USBFS_1.c ****     uint8 res = 0u;
 678              		.loc 1 900 0
 679 0016 0020     		movs	r0, #0
 680              	.LVL44:
 906:Generated_Source\PSoC5/USBFS_1.c ****     }
ARM GAS  C:\Users\Alex\AppData\Local\Temp\ccapzahD.s 			page 29


 907:Generated_Source\PSoC5/USBFS_1.c **** 
 908:Generated_Source\PSoC5/USBFS_1.c ****     return (res);
 909:Generated_Source\PSoC5/USBFS_1.c **** }
 681              		.loc 1 909 0
 682 0018 7047     		bx	lr
 683              	.L41:
 684 001a 00BF     		.align	2
 685              	.L40:
 686 001c 00000000 		.word	USBFS_1_configurationChanged
 687              		.cfi_endproc
 688              	.LFE7:
 689              		.size	USBFS_1_IsConfigurationChanged, .-USBFS_1_IsConfigurationChanged
 690              		.section	.text.USBFS_1_GetInterfaceSetting,"ax",%progbits
 691              		.align	2
 692              		.global	USBFS_1_GetInterfaceSetting
 693              		.thumb
 694              		.thumb_func
 695              		.type	USBFS_1_GetInterfaceSetting, %function
 696              	USBFS_1_GetInterfaceSetting:
 697              	.LFB8:
 910:Generated_Source\PSoC5/USBFS_1.c **** 
 911:Generated_Source\PSoC5/USBFS_1.c **** 
 912:Generated_Source\PSoC5/USBFS_1.c **** /*******************************************************************************
 913:Generated_Source\PSoC5/USBFS_1.c **** * Function Name: USBFS_1_GetInterfaceSetting
 914:Generated_Source\PSoC5/USBFS_1.c **** ****************************************************************************//**
 915:Generated_Source\PSoC5/USBFS_1.c **** *
 916:Generated_Source\PSoC5/USBFS_1.c **** *  This function gets the current alternate setting for the specified interface.
 917:Generated_Source\PSoC5/USBFS_1.c **** *  It is useful to identify which alternate settings are active in the specified 
 918:Generated_Source\PSoC5/USBFS_1.c **** *  interface.
 919:Generated_Source\PSoC5/USBFS_1.c **** *
 920:Generated_Source\PSoC5/USBFS_1.c **** *  \param
 921:Generated_Source\PSoC5/USBFS_1.c **** *  interfaceNumber interface number
 922:Generated_Source\PSoC5/USBFS_1.c **** *
 923:Generated_Source\PSoC5/USBFS_1.c **** * \return
 924:Generated_Source\PSoC5/USBFS_1.c **** *  Returns the current alternate setting for the specified interface.
 925:Generated_Source\PSoC5/USBFS_1.c **** *
 926:Generated_Source\PSoC5/USBFS_1.c **** *******************************************************************************/
 927:Generated_Source\PSoC5/USBFS_1.c **** uint8  USBFS_1_GetInterfaceSetting(uint8 interfaceNumber)
 928:Generated_Source\PSoC5/USBFS_1.c ****                                                     
 929:Generated_Source\PSoC5/USBFS_1.c **** {
 698              		.loc 1 929 0
 699              		.cfi_startproc
 700              		@ args = 0, pretend = 0, frame = 0
 701              		@ frame_needed = 0, uses_anonymous_args = 0
 702              		@ link register save eliminated.
 703              	.LVL45:
 930:Generated_Source\PSoC5/USBFS_1.c ****     return (USBFS_1_interfaceSetting[interfaceNumber]);
 704              		.loc 1 930 0
 705 0000 014B     		ldr	r3, .L43
 706 0002 185C     		ldrb	r0, [r3, r0]	@ zero_extendqisi2
 707              	.LVL46:
 931:Generated_Source\PSoC5/USBFS_1.c **** }
 708              		.loc 1 931 0
 709 0004 7047     		bx	lr
 710              	.L44:
 711 0006 00BF     		.align	2
 712              	.L43:
ARM GAS  C:\Users\Alex\AppData\Local\Temp\ccapzahD.s 			page 30


 713 0008 00000000 		.word	USBFS_1_interfaceSetting
 714              		.cfi_endproc
 715              	.LFE8:
 716              		.size	USBFS_1_GetInterfaceSetting, .-USBFS_1_GetInterfaceSetting
 717              		.section	.text.USBFS_1_GetEPState,"ax",%progbits
 718              		.align	2
 719              		.global	USBFS_1_GetEPState
 720              		.thumb
 721              		.thumb_func
 722              		.type	USBFS_1_GetEPState, %function
 723              	USBFS_1_GetEPState:
 724              	.LFB9:
 932:Generated_Source\PSoC5/USBFS_1.c **** 
 933:Generated_Source\PSoC5/USBFS_1.c **** 
 934:Generated_Source\PSoC5/USBFS_1.c **** /*******************************************************************************
 935:Generated_Source\PSoC5/USBFS_1.c **** * Function Name: USBFS_1_GetEPState
 936:Generated_Source\PSoC5/USBFS_1.c **** ****************************************************************************//**
 937:Generated_Source\PSoC5/USBFS_1.c **** *
 938:Generated_Source\PSoC5/USBFS_1.c **** *  This function returns the state of the requested endpoint.
 939:Generated_Source\PSoC5/USBFS_1.c **** *
 940:Generated_Source\PSoC5/USBFS_1.c **** * \param epNumber Data endpoint number
 941:Generated_Source\PSoC5/USBFS_1.c **** *
 942:Generated_Source\PSoC5/USBFS_1.c **** * \return
 943:Generated_Source\PSoC5/USBFS_1.c **** *  Returns the current state of the specified USBFS endpoint. Symbolic names and
 944:Generated_Source\PSoC5/USBFS_1.c **** *  their associated values are given in the following table. Use these constants
 945:Generated_Source\PSoC5/USBFS_1.c **** *  whenever you write code to change the state of the endpoints, such as ISR
 946:Generated_Source\PSoC5/USBFS_1.c **** *  code, to handle data sent or received.
 947:Generated_Source\PSoC5/USBFS_1.c **** *
 948:Generated_Source\PSoC5/USBFS_1.c **** *  Return Value           | Description
 949:Generated_Source\PSoC5/USBFS_1.c **** *  -----------------------|-----------------------------------------------------
 950:Generated_Source\PSoC5/USBFS_1.c **** *  USBFS_NO_EVENT_PENDING |The endpoint is awaiting SIE action
 951:Generated_Source\PSoC5/USBFS_1.c **** *  USBFS_EVENT_PENDING    |The endpoint is awaiting CPU action
 952:Generated_Source\PSoC5/USBFS_1.c **** *  USBFS_NO_EVENT_ALLOWED |The endpoint is locked from access
 953:Generated_Source\PSoC5/USBFS_1.c **** *  USBFS_IN_BUFFER_FULL   |The IN endpoint is loaded and the mode is set to ACK IN
 954:Generated_Source\PSoC5/USBFS_1.c **** *  USBFS_IN_BUFFER_EMPTY  |An IN transaction occurred and more data can be loaded
 955:Generated_Source\PSoC5/USBFS_1.c **** *  USBFS_OUT_BUFFER_EMPTY |The OUT endpoint is set to ACK OUT and is waiting for data
 956:Generated_Source\PSoC5/USBFS_1.c **** *  USBFS_OUT_BUFFER_FULL  |An OUT transaction has occurred and data can be read
 957:Generated_Source\PSoC5/USBFS_1.c **** *
 958:Generated_Source\PSoC5/USBFS_1.c **** *******************************************************************************/
 959:Generated_Source\PSoC5/USBFS_1.c **** uint8 USBFS_1_GetEPState(uint8 epNumber) 
 960:Generated_Source\PSoC5/USBFS_1.c **** {
 725              		.loc 1 960 0
 726              		.cfi_startproc
 727              		@ args = 0, pretend = 0, frame = 0
 728              		@ frame_needed = 0, uses_anonymous_args = 0
 729              		@ link register save eliminated.
 730              	.LVL47:
 961:Generated_Source\PSoC5/USBFS_1.c ****     return (USBFS_1_EP[epNumber].apiEpState);
 731              		.loc 1 961 0
 732 0000 00EB4000 		add	r0, r0, r0, lsl #1
 733              	.LVL48:
 734 0004 8300     		lsls	r3, r0, #2
 735 0006 024A     		ldr	r2, .L46
 736 0008 1344     		add	r3, r3, r2
 737 000a 5878     		ldrb	r0, [r3, #1]	@ zero_extendqisi2
 962:Generated_Source\PSoC5/USBFS_1.c **** }
 738              		.loc 1 962 0
ARM GAS  C:\Users\Alex\AppData\Local\Temp\ccapzahD.s 			page 31


 739 000c 7047     		bx	lr
 740              	.L47:
 741 000e 00BF     		.align	2
 742              	.L46:
 743 0010 00000000 		.word	USBFS_1_EP
 744              		.cfi_endproc
 745              	.LFE9:
 746              		.size	USBFS_1_GetEPState, .-USBFS_1_GetEPState
 747              		.section	.text.USBFS_1_GetEPCount,"ax",%progbits
 748              		.align	2
 749              		.global	USBFS_1_GetEPCount
 750              		.thumb
 751              		.thumb_func
 752              		.type	USBFS_1_GetEPCount, %function
 753              	USBFS_1_GetEPCount:
 754              	.LFB10:
 963:Generated_Source\PSoC5/USBFS_1.c **** 
 964:Generated_Source\PSoC5/USBFS_1.c **** 
 965:Generated_Source\PSoC5/USBFS_1.c **** /*******************************************************************************
 966:Generated_Source\PSoC5/USBFS_1.c **** * Function Name: USBFS_1_GetEPCount
 967:Generated_Source\PSoC5/USBFS_1.c **** ****************************************************************************//**
 968:Generated_Source\PSoC5/USBFS_1.c **** *
 969:Generated_Source\PSoC5/USBFS_1.c **** *  This function supports Data Endpoints only(EP1-EP8).
 970:Generated_Source\PSoC5/USBFS_1.c **** *  Returns the transfer count for the requested endpoint.  The value from
 971:Generated_Source\PSoC5/USBFS_1.c **** *  the count registers includes 2 counts for the two byte checksum of the
 972:Generated_Source\PSoC5/USBFS_1.c **** *  packet.  This function subtracts the two counts.
 973:Generated_Source\PSoC5/USBFS_1.c **** *
 974:Generated_Source\PSoC5/USBFS_1.c **** *  \param epNumber Data Endpoint Number.
 975:Generated_Source\PSoC5/USBFS_1.c **** *                   Valid values are between 1 and 8.
 976:Generated_Source\PSoC5/USBFS_1.c **** *
 977:Generated_Source\PSoC5/USBFS_1.c **** * \return
 978:Generated_Source\PSoC5/USBFS_1.c **** *  Returns the current byte count from the specified endpoint or 0 for an
 979:Generated_Source\PSoC5/USBFS_1.c **** *  invalid endpoint.
 980:Generated_Source\PSoC5/USBFS_1.c **** *
 981:Generated_Source\PSoC5/USBFS_1.c **** *******************************************************************************/
 982:Generated_Source\PSoC5/USBFS_1.c **** uint16 USBFS_1_GetEPCount(uint8 epNumber) 
 983:Generated_Source\PSoC5/USBFS_1.c **** {
 755              		.loc 1 983 0
 756              		.cfi_startproc
 757              		@ args = 0, pretend = 0, frame = 0
 758              		@ frame_needed = 0, uses_anonymous_args = 0
 759              		@ link register save eliminated.
 760              	.LVL49:
 984:Generated_Source\PSoC5/USBFS_1.c ****     uint16 cntr = 0u;
 985:Generated_Source\PSoC5/USBFS_1.c **** 
 986:Generated_Source\PSoC5/USBFS_1.c ****     if ((epNumber > USBFS_1_EP0) && (epNumber < USBFS_1_MAX_EP))
 761              		.loc 1 986 0
 762 0000 431E     		subs	r3, r0, #1
 763 0002 DBB2     		uxtb	r3, r3
 764 0004 072B     		cmp	r3, #7
 765 0006 0BD8     		bhi	.L50
 987:Generated_Source\PSoC5/USBFS_1.c ****     {
 988:Generated_Source\PSoC5/USBFS_1.c ****         /* Get 11-bits EP counter where epCnt0 - 3 bits MSB and epCnt1 - 8 bits LSB. */
 989:Generated_Source\PSoC5/USBFS_1.c ****         cntr  = ((uint16) USBFS_1_SIE_EP_BASE.sieEp[epNumber].epCnt0) & USBFS_1_EPX_CNT0_MASK;
 766              		.loc 1 989 0
 767 0008 064B     		ldr	r3, .L51
 768 000a 0001     		lsls	r0, r0, #4
ARM GAS  C:\Users\Alex\AppData\Local\Temp\ccapzahD.s 			page 32


 769              	.LVL50:
 770 000c 1A18     		adds	r2, r3, r0
 771 000e 185C     		ldrb	r0, [r3, r0]	@ zero_extendqisi2
 772 0010 00F00F00 		and	r0, r0, #15
 773              	.LVL51:
 990:Generated_Source\PSoC5/USBFS_1.c ****         cntr  = ((uint16) (cntr << 8u)) | ((uint16) USBFS_1_SIE_EP_BASE.sieEp[epNumber].epCnt1);
 774              		.loc 1 990 0
 775 0014 5378     		ldrb	r3, [r2, #1]	@ zero_extendqisi2
 776 0016 43EA0020 		orr	r0, r3, r0, lsl #8
 777              	.LVL52:
 991:Generated_Source\PSoC5/USBFS_1.c ****         cntr -= USBFS_1_EPX_CNTX_CRC_COUNT;
 778              		.loc 1 991 0
 779 001a 0238     		subs	r0, r0, #2
 780              	.LVL53:
 781 001c 80B2     		uxth	r0, r0
 782              	.LVL54:
 783 001e 7047     		bx	lr
 784              	.LVL55:
 785              	.L50:
 984:Generated_Source\PSoC5/USBFS_1.c **** 
 786              		.loc 1 984 0
 787 0020 0020     		movs	r0, #0
 788              	.LVL56:
 992:Generated_Source\PSoC5/USBFS_1.c ****     }
 993:Generated_Source\PSoC5/USBFS_1.c **** 
 994:Generated_Source\PSoC5/USBFS_1.c ****     return (cntr);
 995:Generated_Source\PSoC5/USBFS_1.c **** }
 789              		.loc 1 995 0
 790 0022 7047     		bx	lr
 791              	.L52:
 792              		.align	2
 793              	.L51:
 794 0024 FC5F0040 		.word	1073766396
 795              		.cfi_endproc
 796              	.LFE10:
 797              		.size	USBFS_1_GetEPCount, .-USBFS_1_GetEPCount
 798              		.section	.text.USBFS_1_LoadInEP,"ax",%progbits
 799              		.align	2
 800              		.global	USBFS_1_LoadInEP
 801              		.thumb
 802              		.thumb_func
 803              		.type	USBFS_1_LoadInEP, %function
 804              	USBFS_1_LoadInEP:
 805              	.LFB11:
 996:Generated_Source\PSoC5/USBFS_1.c **** 
 997:Generated_Source\PSoC5/USBFS_1.c **** 
 998:Generated_Source\PSoC5/USBFS_1.c **** #if (USBFS_1_EP_MANAGEMENT_DMA)
 999:Generated_Source\PSoC5/USBFS_1.c **** #if (CY_PSOC4)
1000:Generated_Source\PSoC5/USBFS_1.c ****     /*******************************************************************************
1001:Generated_Source\PSoC5/USBFS_1.c ****     * Function Name: USBFS_1_InitEpDma
1002:Generated_Source\PSoC5/USBFS_1.c ****     ****************************************************************************//**
1003:Generated_Source\PSoC5/USBFS_1.c ****     *
1004:Generated_Source\PSoC5/USBFS_1.c ****     *  This function configures priority for all DMA channels utilized by the
1005:Generated_Source\PSoC5/USBFS_1.c ****     *  component. Also sets callbacks for DMA auto mode.
1006:Generated_Source\PSoC5/USBFS_1.c ****     *
1007:Generated_Source\PSoC5/USBFS_1.c ****     *******************************************************************************/
1008:Generated_Source\PSoC5/USBFS_1.c ****     static void USBFS_1_InitEpDma(void)
ARM GAS  C:\Users\Alex\AppData\Local\Temp\ccapzahD.s 			page 33


1009:Generated_Source\PSoC5/USBFS_1.c ****     {
1010:Generated_Source\PSoC5/USBFS_1.c ****     #if (USBFS_1_DMA1_ACTIVE)
1011:Generated_Source\PSoC5/USBFS_1.c ****         CYDMA_CH_CTL_BASE.ctl[USBFS_1_ep1_dma_CHANNEL] = USBFS_1_ep1_dma_CHANNEL_CFG;
1012:Generated_Source\PSoC5/USBFS_1.c ****     #endif /* (USBFS_1_DMA1_ACTIVE) */
1013:Generated_Source\PSoC5/USBFS_1.c **** 
1014:Generated_Source\PSoC5/USBFS_1.c ****     #if (USBFS_1_DMA2_ACTIVE)
1015:Generated_Source\PSoC5/USBFS_1.c ****         CYDMA_CH_CTL_BASE.ctl[USBFS_1_ep2_dma_CHANNEL] = USBFS_1_ep2_dma_CHANNEL_CFG;
1016:Generated_Source\PSoC5/USBFS_1.c ****     #endif /* (USBFS_1_DMA2_ACTIVE) */
1017:Generated_Source\PSoC5/USBFS_1.c **** 
1018:Generated_Source\PSoC5/USBFS_1.c ****     #if (USBFS_1_DMA3_ACTIVE)
1019:Generated_Source\PSoC5/USBFS_1.c ****         CYDMA_CH_CTL_BASE.ctl[USBFS_1_ep3_dma_CHANNEL] = USBFS_1_ep3_dma_CHANNEL_CFG;
1020:Generated_Source\PSoC5/USBFS_1.c ****     #endif /* (USBFS_1_DMA3_ACTIVE) */
1021:Generated_Source\PSoC5/USBFS_1.c **** 
1022:Generated_Source\PSoC5/USBFS_1.c ****     #if (USBFS_1_DMA4_ACTIVE)
1023:Generated_Source\PSoC5/USBFS_1.c ****         CYDMA_CH_CTL_BASE.ctl[USBFS_1_ep4_dma_CHANNEL] = USBFS_1_ep4_dma_CHANNEL_CFG;
1024:Generated_Source\PSoC5/USBFS_1.c ****     #endif /* (USBFS_1_DMA4_ACTIVE) */
1025:Generated_Source\PSoC5/USBFS_1.c **** 
1026:Generated_Source\PSoC5/USBFS_1.c ****     #if (USBFS_1_DMA5_ACTIVE)
1027:Generated_Source\PSoC5/USBFS_1.c ****         CYDMA_CH_CTL_BASE.ctl[USBFS_1_ep5_dma_CHANNEL] = USBFS_1_ep5_dma_CHANNEL_CFG;
1028:Generated_Source\PSoC5/USBFS_1.c ****     #endif /* (USBFS_1_DMA5_ACTIVE) */
1029:Generated_Source\PSoC5/USBFS_1.c **** 
1030:Generated_Source\PSoC5/USBFS_1.c ****     #if (USBFS_1_DMA6_ACTIVE)
1031:Generated_Source\PSoC5/USBFS_1.c ****         CYDMA_CH_CTL_BASE.ctl[USBFS_1_ep6_dma_CHANNEL] = USBFS_1_ep6_dma_CHANNEL_CFG;
1032:Generated_Source\PSoC5/USBFS_1.c ****     #endif /* (USBFS_1_DMA6_ACTIVE) */
1033:Generated_Source\PSoC5/USBFS_1.c **** 
1034:Generated_Source\PSoC5/USBFS_1.c ****     #if (USBFS_1_DMA7_ACTIVE)
1035:Generated_Source\PSoC5/USBFS_1.c ****         CYDMA_CH_CTL_BASE.ctl[USBFS_1_ep7_dma_CHANNEL] = USBFS_1_ep7_dma_CHANNEL_CFG;
1036:Generated_Source\PSoC5/USBFS_1.c ****     #endif /* (USBFS_1_DMA7_ACTIVE) */
1037:Generated_Source\PSoC5/USBFS_1.c **** 
1038:Generated_Source\PSoC5/USBFS_1.c ****     #if (USBFS_1_DMA8_ACTIVE)
1039:Generated_Source\PSoC5/USBFS_1.c ****         CYDMA_CH_CTL_BASE.ctl[USBFS_1_ep8_dma_CHANNEL] = USBFS_1_ep8_dma_CHANNEL_CFG;
1040:Generated_Source\PSoC5/USBFS_1.c ****     #endif /* (USBFS_1_DMA8_ACTIVE) */
1041:Generated_Source\PSoC5/USBFS_1.c **** 
1042:Generated_Source\PSoC5/USBFS_1.c ****     #if (USBFS_1_EP_MANAGEMENT_DMA_AUTO)
1043:Generated_Source\PSoC5/USBFS_1.c ****         /* Initialize DMA channel callbacks. */
1044:Generated_Source\PSoC5/USBFS_1.c ****         #if (USBFS_1_DMA1_ACTIVE)
1045:Generated_Source\PSoC5/USBFS_1.c ****             (void) USBFS_1_ep1_dma_SetInterruptCallback(&USBFS_1_EP1_DMA_DONE_ISR);
1046:Generated_Source\PSoC5/USBFS_1.c ****         #endif /* (USBFS_1_DMA1_ACTIVE) */
1047:Generated_Source\PSoC5/USBFS_1.c **** 
1048:Generated_Source\PSoC5/USBFS_1.c ****         #if (USBFS_1_DMA2_ACTIVE)
1049:Generated_Source\PSoC5/USBFS_1.c ****             (void) USBFS_1_ep2_dma_SetInterruptCallback(&USBFS_1_EP2_DMA_DONE_ISR);
1050:Generated_Source\PSoC5/USBFS_1.c ****         #endif /* (USBFS_1_DMA2_ACTIVE) */
1051:Generated_Source\PSoC5/USBFS_1.c **** 
1052:Generated_Source\PSoC5/USBFS_1.c ****         #if (USBFS_1_DMA3_ACTIVE)
1053:Generated_Source\PSoC5/USBFS_1.c ****             (void) USBFS_1_ep3_dma_SetInterruptCallback(&USBFS_1_EP3_DMA_DONE_ISR);
1054:Generated_Source\PSoC5/USBFS_1.c ****         #endif /* (USBFS_1_DMA3_ACTIVE) */
1055:Generated_Source\PSoC5/USBFS_1.c **** 
1056:Generated_Source\PSoC5/USBFS_1.c ****         #if (USBFS_1_DMA4_ACTIVE)
1057:Generated_Source\PSoC5/USBFS_1.c ****             (void) USBFS_1_ep4_dma_SetInterruptCallback(&USBFS_1_EP4_DMA_DONE_ISR);
1058:Generated_Source\PSoC5/USBFS_1.c ****         #endif /* (USBFS_1_DMA4_ACTIVE) */
1059:Generated_Source\PSoC5/USBFS_1.c **** 
1060:Generated_Source\PSoC5/USBFS_1.c ****         #if (USBFS_1_DMA5_ACTIVE)
1061:Generated_Source\PSoC5/USBFS_1.c ****             (void) USBFS_1_ep5_dma_SetInterruptCallback(&USBFS_1_EP5_DMA_DONE_ISR);
1062:Generated_Source\PSoC5/USBFS_1.c ****         #endif /* (USBFS_1_DMA5_ACTIVE) */
1063:Generated_Source\PSoC5/USBFS_1.c **** 
1064:Generated_Source\PSoC5/USBFS_1.c ****         #if (USBFS_1_DMA6_ACTIVE)
1065:Generated_Source\PSoC5/USBFS_1.c ****             (void) USBFS_1_ep6_dma_SetInterruptCallback(&USBFS_1_EP6_DMA_DONE_ISR);
ARM GAS  C:\Users\Alex\AppData\Local\Temp\ccapzahD.s 			page 34


1066:Generated_Source\PSoC5/USBFS_1.c ****         #endif /* (USBFS_1_DMA6_ACTIVE) */
1067:Generated_Source\PSoC5/USBFS_1.c **** 
1068:Generated_Source\PSoC5/USBFS_1.c ****         #if (USBFS_1_DMA7_ACTIVE)
1069:Generated_Source\PSoC5/USBFS_1.c ****             (void) USBFS_1_ep7_dma_SetInterruptCallback(&USBFS_1_EP7_DMA_DONE_ISR);
1070:Generated_Source\PSoC5/USBFS_1.c ****         #endif /* (USBFS_1_DMA7_ACTIVE) */
1071:Generated_Source\PSoC5/USBFS_1.c **** 
1072:Generated_Source\PSoC5/USBFS_1.c ****         #if (USBFS_1_DMA8_ACTIVE)
1073:Generated_Source\PSoC5/USBFS_1.c ****             (void) USBFS_1_ep8_dma_SetInterruptCallback(&USBFS_1_EP8_DMA_DONE_ISR);
1074:Generated_Source\PSoC5/USBFS_1.c ****         #endif /* (USBFS_1_DMA8_ACTIVE) */
1075:Generated_Source\PSoC5/USBFS_1.c ****     #endif /* (USBFS_1_EP_MANAGEMENT_DMA_AUTO) */
1076:Generated_Source\PSoC5/USBFS_1.c ****     }
1077:Generated_Source\PSoC5/USBFS_1.c **** #else
1078:Generated_Source\PSoC5/USBFS_1.c **** 
1079:Generated_Source\PSoC5/USBFS_1.c **** 
1080:Generated_Source\PSoC5/USBFS_1.c ****     /***************************************************************************
1081:Generated_Source\PSoC5/USBFS_1.c ****     * Function Name: USBFS_1_InitEP_DMA
1082:Generated_Source\PSoC5/USBFS_1.c ****     ************************************************************************//**
1083:Generated_Source\PSoC5/USBFS_1.c ****     *
1084:Generated_Source\PSoC5/USBFS_1.c ****     *  This function allocates and initializes a DMA channel to be used by the
1085:Generated_Source\PSoC5/USBFS_1.c ****     *  USBFS_1_LoadInEP() or USBFS_1_ReadOutEP() APIs for data
1086:Generated_Source\PSoC5/USBFS_1.c ****     *  transfer. It is available when the Endpoint Memory Management parameter
1087:Generated_Source\PSoC5/USBFS_1.c ****     *  is set to DMA.
1088:Generated_Source\PSoC5/USBFS_1.c ****     *
1089:Generated_Source\PSoC5/USBFS_1.c ****     *  This function is automatically called from the USBFS_LoadInEP() and USBFS_ReadOutEP() APIs.
1090:Generated_Source\PSoC5/USBFS_1.c ****     *
1091:Generated_Source\PSoC5/USBFS_1.c ****     *  \param epNumber Contains the data endpoint number.
1092:Generated_Source\PSoC5/USBFS_1.c ****     *            Valid values are between 1 and 8.
1093:Generated_Source\PSoC5/USBFS_1.c ****     *  \param *pData Pointer to a data array that is related to the EP transfers.
1094:Generated_Source\PSoC5/USBFS_1.c ****     *
1095:Generated_Source\PSoC5/USBFS_1.c ****     * \reentrant No.
1096:Generated_Source\PSoC5/USBFS_1.c ****     *
1097:Generated_Source\PSoC5/USBFS_1.c ****     ***************************************************************************/
1098:Generated_Source\PSoC5/USBFS_1.c ****     void USBFS_1_InitEP_DMA(uint8 epNumber, const uint8 *pData)
1099:Generated_Source\PSoC5/USBFS_1.c ****                                                                     
1100:Generated_Source\PSoC5/USBFS_1.c ****     {
1101:Generated_Source\PSoC5/USBFS_1.c ****         uint16 src;
1102:Generated_Source\PSoC5/USBFS_1.c ****         uint16 dst;
1103:Generated_Source\PSoC5/USBFS_1.c **** 
1104:Generated_Source\PSoC5/USBFS_1.c ****     #if (CY_PSOC3)
1105:Generated_Source\PSoC5/USBFS_1.c ****         src = HI16(CYDEV_SRAM_BASE);
1106:Generated_Source\PSoC5/USBFS_1.c ****         dst = HI16(CYDEV_PERIPH_BASE);
1107:Generated_Source\PSoC5/USBFS_1.c ****         pData = pData;
1108:Generated_Source\PSoC5/USBFS_1.c ****     #else
1109:Generated_Source\PSoC5/USBFS_1.c ****         if ((USBFS_1_EP[epNumber].addr & USBFS_1_DIR_IN) != 0u)
1110:Generated_Source\PSoC5/USBFS_1.c ****         {
1111:Generated_Source\PSoC5/USBFS_1.c ****             /* IN endpoint: source is memory buffer. */
1112:Generated_Source\PSoC5/USBFS_1.c ****             src = HI16(pData);
1113:Generated_Source\PSoC5/USBFS_1.c ****             dst = HI16(CYDEV_PERIPH_BASE);
1114:Generated_Source\PSoC5/USBFS_1.c ****         }
1115:Generated_Source\PSoC5/USBFS_1.c ****         else
1116:Generated_Source\PSoC5/USBFS_1.c ****         {
1117:Generated_Source\PSoC5/USBFS_1.c ****             /* OUT endpoint: source is USB IP memory buffer. */
1118:Generated_Source\PSoC5/USBFS_1.c ****             src = HI16(CYDEV_PERIPH_BASE);
1119:Generated_Source\PSoC5/USBFS_1.c ****             dst = HI16(pData);
1120:Generated_Source\PSoC5/USBFS_1.c ****         }
1121:Generated_Source\PSoC5/USBFS_1.c ****     #endif  /* (CY_PSOC3) */
1122:Generated_Source\PSoC5/USBFS_1.c **** 
ARM GAS  C:\Users\Alex\AppData\Local\Temp\ccapzahD.s 			page 35


1123:Generated_Source\PSoC5/USBFS_1.c ****         switch(epNumber)
1124:Generated_Source\PSoC5/USBFS_1.c ****         {
1125:Generated_Source\PSoC5/USBFS_1.c ****     #if (USBFS_1_DMA1_ACTIVE)
1126:Generated_Source\PSoC5/USBFS_1.c ****         case USBFS_1_EP1:
1127:Generated_Source\PSoC5/USBFS_1.c ****             USBFS_1_DmaChan[epNumber] = USBFS_1_ep1_DmaInitialize(USBFS_1_DMA_BYTES_PER_BURST,
1128:Generated_Source\PSoC5/USBFS_1.c ****                                                                                     USBFS_1_DMA_REQ
1129:Generated_Source\PSoC5/USBFS_1.c ****             break;
1130:Generated_Source\PSoC5/USBFS_1.c ****     #endif /* (USBFS_1_DMA1_ACTIVE) */
1131:Generated_Source\PSoC5/USBFS_1.c **** 
1132:Generated_Source\PSoC5/USBFS_1.c ****     #if (USBFS_1_DMA2_ACTIVE)
1133:Generated_Source\PSoC5/USBFS_1.c ****         case USBFS_1_EP2:
1134:Generated_Source\PSoC5/USBFS_1.c ****             USBFS_1_DmaChan[epNumber] = USBFS_1_ep2_DmaInitialize(USBFS_1_DMA_BYTES_PER_BURST,
1135:Generated_Source\PSoC5/USBFS_1.c ****                                                                                     USBFS_1_DMA_REQ
1136:Generated_Source\PSoC5/USBFS_1.c ****             break;
1137:Generated_Source\PSoC5/USBFS_1.c ****     #endif /* (USBFS_1_DMA2_ACTIVE) */
1138:Generated_Source\PSoC5/USBFS_1.c **** 
1139:Generated_Source\PSoC5/USBFS_1.c ****     #if (USBFS_1_DMA3_ACTIVE)
1140:Generated_Source\PSoC5/USBFS_1.c ****             case USBFS_1_EP3:
1141:Generated_Source\PSoC5/USBFS_1.c ****                 USBFS_1_DmaChan[epNumber] = USBFS_1_ep3_DmaInitialize(USBFS_1_DMA_BYTES_PER_BURST,
1142:Generated_Source\PSoC5/USBFS_1.c ****                                                                                         USBFS_1_DMA
1143:Generated_Source\PSoC5/USBFS_1.c ****             break;
1144:Generated_Source\PSoC5/USBFS_1.c ****     #endif /* (USBFS_1_DMA3_ACTIVE) */
1145:Generated_Source\PSoC5/USBFS_1.c **** 
1146:Generated_Source\PSoC5/USBFS_1.c ****     #if (USBFS_1_DMA4_ACTIVE)
1147:Generated_Source\PSoC5/USBFS_1.c ****             case USBFS_1_EP4:
1148:Generated_Source\PSoC5/USBFS_1.c ****                 USBFS_1_DmaChan[epNumber] = USBFS_1_ep4_DmaInitialize(USBFS_1_DMA_BYTES_PER_BURST,
1149:Generated_Source\PSoC5/USBFS_1.c ****                                                                                         USBFS_1_DMA
1150:Generated_Source\PSoC5/USBFS_1.c ****             break;
1151:Generated_Source\PSoC5/USBFS_1.c ****     #endif /* (USBFS_1_DMA4_ACTIVE) */
1152:Generated_Source\PSoC5/USBFS_1.c **** 
1153:Generated_Source\PSoC5/USBFS_1.c ****     #if (USBFS_1_DMA5_ACTIVE)
1154:Generated_Source\PSoC5/USBFS_1.c ****             case USBFS_1_EP5:
1155:Generated_Source\PSoC5/USBFS_1.c ****                 USBFS_1_DmaChan[epNumber] = USBFS_1_ep5_DmaInitialize(USBFS_1_DMA_BYTES_PER_BURST,
1156:Generated_Source\PSoC5/USBFS_1.c ****                                                                                         USBFS_1_DMA
1157:Generated_Source\PSoC5/USBFS_1.c ****             break;
1158:Generated_Source\PSoC5/USBFS_1.c ****     #endif /* (USBFS_1_DMA5_ACTIVE) */
1159:Generated_Source\PSoC5/USBFS_1.c **** 
1160:Generated_Source\PSoC5/USBFS_1.c ****     #if (USBFS_1_DMA6_ACTIVE)
1161:Generated_Source\PSoC5/USBFS_1.c ****         case USBFS_1_EP6:
1162:Generated_Source\PSoC5/USBFS_1.c ****             USBFS_1_DmaChan[epNumber] = USBFS_1_ep6_DmaInitialize(USBFS_1_DMA_BYTES_PER_BURST,
1163:Generated_Source\PSoC5/USBFS_1.c ****                                                                                     USBFS_1_DMA_REQ
1164:Generated_Source\PSoC5/USBFS_1.c ****             break;
1165:Generated_Source\PSoC5/USBFS_1.c ****     #endif /* (USBFS_1_DMA6_ACTIVE) */
1166:Generated_Source\PSoC5/USBFS_1.c **** 
1167:Generated_Source\PSoC5/USBFS_1.c ****     #if (USBFS_1_DMA7_ACTIVE)
1168:Generated_Source\PSoC5/USBFS_1.c ****         case USBFS_1_EP7:
1169:Generated_Source\PSoC5/USBFS_1.c ****                 USBFS_1_DmaChan[epNumber] = USBFS_1_ep7_DmaInitialize(USBFS_1_DMA_BYTES_PER_BURST,
1170:Generated_Source\PSoC5/USBFS_1.c ****                                                                                         USBFS_1_DMA
1171:Generated_Source\PSoC5/USBFS_1.c ****             break;
1172:Generated_Source\PSoC5/USBFS_1.c ****     #endif /* (USBFS_1_DMA7_ACTIVE) */
1173:Generated_Source\PSoC5/USBFS_1.c **** 
1174:Generated_Source\PSoC5/USBFS_1.c ****     #if (USBFS_1_DMA8_ACTIVE)
1175:Generated_Source\PSoC5/USBFS_1.c ****         case USBFS_1_EP8:
1176:Generated_Source\PSoC5/USBFS_1.c ****                 USBFS_1_DmaChan[epNumber] = USBFS_1_ep8_DmaInitialize(USBFS_1_DMA_BYTES_PER_BURST,
1177:Generated_Source\PSoC5/USBFS_1.c ****                                                                                         USBFS_1_DMA
1178:Generated_Source\PSoC5/USBFS_1.c ****             break;
1179:Generated_Source\PSoC5/USBFS_1.c ****     #endif /* (USBFS_1_DMA8_ACTIVE) */
ARM GAS  C:\Users\Alex\AppData\Local\Temp\ccapzahD.s 			page 36


1180:Generated_Source\PSoC5/USBFS_1.c **** 
1181:Generated_Source\PSoC5/USBFS_1.c ****         default:
1182:Generated_Source\PSoC5/USBFS_1.c ****             /* Do nothing for endpoints other than 1-8. */
1183:Generated_Source\PSoC5/USBFS_1.c ****             break;
1184:Generated_Source\PSoC5/USBFS_1.c ****         }
1185:Generated_Source\PSoC5/USBFS_1.c **** 
1186:Generated_Source\PSoC5/USBFS_1.c ****         if ((epNumber > USBFS_1_EP0) && (epNumber < USBFS_1_MAX_EP))
1187:Generated_Source\PSoC5/USBFS_1.c ****         {
1188:Generated_Source\PSoC5/USBFS_1.c ****             USBFS_1_DmaTd[epNumber] = CyDmaTdAllocate();
1189:Generated_Source\PSoC5/USBFS_1.c **** 
1190:Generated_Source\PSoC5/USBFS_1.c ****         #if (USBFS_1_EP_MANAGEMENT_DMA_AUTO && (USBFS_1_EP_DMA_AUTO_OPT == 0u))
1191:Generated_Source\PSoC5/USBFS_1.c ****             USBFS_1_DmaNextTd[epNumber] = CyDmaTdAllocate();
1192:Generated_Source\PSoC5/USBFS_1.c ****         #endif /* (USBFS_1_EP_MANAGEMENT_DMA_AUTO && (USBFS_1_EP_DMA_AUTO_OPT == 0u)) */
1193:Generated_Source\PSoC5/USBFS_1.c ****         }
1194:Generated_Source\PSoC5/USBFS_1.c ****     }
1195:Generated_Source\PSoC5/USBFS_1.c **** #endif /* (CY_PSOC4) */
1196:Generated_Source\PSoC5/USBFS_1.c **** 
1197:Generated_Source\PSoC5/USBFS_1.c ****     /***************************************************************************
1198:Generated_Source\PSoC5/USBFS_1.c ****     * Function Name: USBFS_1_Stop_DMA
1199:Generated_Source\PSoC5/USBFS_1.c ****     ************************************************************************//**
1200:Generated_Source\PSoC5/USBFS_1.c ****     *  
1201:Generated_Source\PSoC5/USBFS_1.c ****     *  This function stops DMA channel associated with endpoint. It is available 
1202:Generated_Source\PSoC5/USBFS_1.c ****     *  when the Endpoint Buffer Management parameter is set to DMA. Call this 
1203:Generated_Source\PSoC5/USBFS_1.c ****     *  function when endpoint direction is changed from IN to OUT or vice versa 
1204:Generated_Source\PSoC5/USBFS_1.c ****     *  to trigger DMA re-configuration when USBFS_1_LoadInEP() or 
1205:Generated_Source\PSoC5/USBFS_1.c ****     *  USBFS_1_ReadOutEP() functions are called the first time. 
1206:Generated_Source\PSoC5/USBFS_1.c ****     *  
1207:Generated_Source\PSoC5/USBFS_1.c ****     *  \param epNumber: The data endpoint number for which associated DMA 
1208:Generated_Source\PSoC5/USBFS_1.c ****     *  channel is stopped. The range of valid values is between 1 and 8. To stop 
1209:Generated_Source\PSoC5/USBFS_1.c ****     *  all DMAs associated with endpoints call this function with 
1210:Generated_Source\PSoC5/USBFS_1.c ****     *  USBFS_1_MAX_EP argument.
1211:Generated_Source\PSoC5/USBFS_1.c ****     *
1212:Generated_Source\PSoC5/USBFS_1.c ****     * \reentrant
1213:Generated_Source\PSoC5/USBFS_1.c ****     *  No.
1214:Generated_Source\PSoC5/USBFS_1.c ****     *
1215:Generated_Source\PSoC5/USBFS_1.c ****     ***************************************************************************/
1216:Generated_Source\PSoC5/USBFS_1.c ****     void USBFS_1_Stop_DMA(uint8 epNumber) 
1217:Generated_Source\PSoC5/USBFS_1.c ****     {
1218:Generated_Source\PSoC5/USBFS_1.c ****         uint8 i;
1219:Generated_Source\PSoC5/USBFS_1.c **** 
1220:Generated_Source\PSoC5/USBFS_1.c ****         i = (epNumber < USBFS_1_MAX_EP) ? epNumber : USBFS_1_EP1;
1221:Generated_Source\PSoC5/USBFS_1.c **** 
1222:Generated_Source\PSoC5/USBFS_1.c ****         do
1223:Generated_Source\PSoC5/USBFS_1.c ****         {
1224:Generated_Source\PSoC5/USBFS_1.c ****         #if (CY_PSOC4)
1225:Generated_Source\PSoC5/USBFS_1.c ****             if (0u != USBFS_1_DmaChan[i])
1226:Generated_Source\PSoC5/USBFS_1.c ****             {
1227:Generated_Source\PSoC5/USBFS_1.c ****                 USBFS_1_CyDmaChDisable(USBFS_1_DmaChan[i]);
1228:Generated_Source\PSoC5/USBFS_1.c ****             }
1229:Generated_Source\PSoC5/USBFS_1.c ****         #else
1230:Generated_Source\PSoC5/USBFS_1.c ****             if(USBFS_1_DmaTd[i] != DMA_INVALID_TD)
1231:Generated_Source\PSoC5/USBFS_1.c ****             {
1232:Generated_Source\PSoC5/USBFS_1.c ****                 (void) CyDmaChDisable(USBFS_1_DmaChan[i]);
1233:Generated_Source\PSoC5/USBFS_1.c ****                 CyDmaTdFree(USBFS_1_DmaTd[i]);
1234:Generated_Source\PSoC5/USBFS_1.c ****                 USBFS_1_DmaTd[i] = DMA_INVALID_TD;
1235:Generated_Source\PSoC5/USBFS_1.c ****             }
1236:Generated_Source\PSoC5/USBFS_1.c **** 
ARM GAS  C:\Users\Alex\AppData\Local\Temp\ccapzahD.s 			page 37


1237:Generated_Source\PSoC5/USBFS_1.c ****             #if (USBFS_1_EP_MANAGEMENT_DMA_AUTO && (USBFS_1_EP_DMA_AUTO_OPT == 0u))
1238:Generated_Source\PSoC5/USBFS_1.c ****                 if(USBFS_1_DmaNextTd[i] != DMA_INVALID_TD)
1239:Generated_Source\PSoC5/USBFS_1.c ****                 {
1240:Generated_Source\PSoC5/USBFS_1.c ****                     CyDmaTdFree(USBFS_1_DmaNextTd[i]);
1241:Generated_Source\PSoC5/USBFS_1.c ****                     USBFS_1_DmaNextTd[i] = DMA_INVALID_TD;
1242:Generated_Source\PSoC5/USBFS_1.c ****                 }
1243:Generated_Source\PSoC5/USBFS_1.c ****             #endif /* (USBFS_1_EP_MANAGEMENT_DMA_AUTO && (USBFS_1_EP_DMA_AUTO_OPT == 0u)) */
1244:Generated_Source\PSoC5/USBFS_1.c **** 
1245:Generated_Source\PSoC5/USBFS_1.c ****         #endif /* (CY_PSOC4) */
1246:Generated_Source\PSoC5/USBFS_1.c ****             i++;
1247:Generated_Source\PSoC5/USBFS_1.c ****         }
1248:Generated_Source\PSoC5/USBFS_1.c ****         while ((i < USBFS_1_MAX_EP) && (epNumber == USBFS_1_MAX_EP));
1249:Generated_Source\PSoC5/USBFS_1.c ****     }
1250:Generated_Source\PSoC5/USBFS_1.c **** #endif /* (USBFS_1_EP_MANAGEMENT_DMA) */
1251:Generated_Source\PSoC5/USBFS_1.c **** 
1252:Generated_Source\PSoC5/USBFS_1.c **** 
1253:Generated_Source\PSoC5/USBFS_1.c **** #if (CY_PSOC3 || CY_PSOC5)
1254:Generated_Source\PSoC5/USBFS_1.c **** #if (USBFS_1_EP_MANAGEMENT_DMA_AUTO && (USBFS_1_EP_DMA_AUTO_OPT == 0u))
1255:Generated_Source\PSoC5/USBFS_1.c ****     /***************************************************************************
1256:Generated_Source\PSoC5/USBFS_1.c ****     * Function Name: USBFS_1_LoadNextInEP
1257:Generated_Source\PSoC5/USBFS_1.c ****     ************************************************************************//**
1258:Generated_Source\PSoC5/USBFS_1.c ****     *
1259:Generated_Source\PSoC5/USBFS_1.c ****     * Summary:
1260:Generated_Source\PSoC5/USBFS_1.c ****     *  This internal function is used for IN endpoint DMA reconfiguration in
1261:Generated_Source\PSoC5/USBFS_1.c ****     *  Auto DMA mode.
1262:Generated_Source\PSoC5/USBFS_1.c ****     *
1263:Generated_Source\PSoC5/USBFS_1.c ****     * Parameters:
1264:Generated_Source\PSoC5/USBFS_1.c ****     *  epNumber: Contains the data endpoint number.
1265:Generated_Source\PSoC5/USBFS_1.c ****     *  mode:   0 - Configure DMA to send the the rest of data.
1266:Generated_Source\PSoC5/USBFS_1.c ****     *          1 - Configure DMA to repeat 2 last bytes of the first burst.
1267:Generated_Source\PSoC5/USBFS_1.c ****     *
1268:Generated_Source\PSoC5/USBFS_1.c ****     ***************************************************************************/
1269:Generated_Source\PSoC5/USBFS_1.c ****     void USBFS_1_LoadNextInEP(uint8 epNumber, uint8 mode) 
1270:Generated_Source\PSoC5/USBFS_1.c ****     {
1271:Generated_Source\PSoC5/USBFS_1.c ****         reg16 *convert;
1272:Generated_Source\PSoC5/USBFS_1.c **** 
1273:Generated_Source\PSoC5/USBFS_1.c ****         if (mode == 0u)
1274:Generated_Source\PSoC5/USBFS_1.c ****         {
1275:Generated_Source\PSoC5/USBFS_1.c ****             /* Configure DMA to send rest of data. */
1276:Generated_Source\PSoC5/USBFS_1.c ****             /* CyDmaTdSetConfiguration API is optimized to change transfer length only and configur
1277:Generated_Source\PSoC5/USBFS_1.c ****             convert = (reg16 *) &CY_DMA_TDMEM_STRUCT_PTR[USBFS_1_DmaTd[epNumber]].TD0[0u];
1278:Generated_Source\PSoC5/USBFS_1.c ****             /* Set transfer length. */
1279:Generated_Source\PSoC5/USBFS_1.c ****             CY_SET_REG16(convert, USBFS_1_inLength[epNumber] - USBFS_1_DMA_BYTES_PER_BURST);
1280:Generated_Source\PSoC5/USBFS_1.c ****             /* CyDmaTdSetAddress API is optimized to change source address only. */
1281:Generated_Source\PSoC5/USBFS_1.c ****             convert = (reg16 *) &CY_DMA_TDMEM_STRUCT_PTR[USBFS_1_DmaTd[epNumber]].TD1[0u];
1282:Generated_Source\PSoC5/USBFS_1.c ****             CY_SET_REG16(convert, LO16((uint32)USBFS_1_inDataPointer[epNumber] +
1283:Generated_Source\PSoC5/USBFS_1.c ****                                             USBFS_1_DMA_BYTES_PER_BURST));
1284:Generated_Source\PSoC5/USBFS_1.c ****             USBFS_1_inBufFull[epNumber] = 1u;
1285:Generated_Source\PSoC5/USBFS_1.c ****         }
1286:Generated_Source\PSoC5/USBFS_1.c ****         else
1287:Generated_Source\PSoC5/USBFS_1.c ****         {
1288:Generated_Source\PSoC5/USBFS_1.c ****             /* Configure DMA to repeat 2 last bytes of the first burst. */
1289:Generated_Source\PSoC5/USBFS_1.c ****             /* CyDmaTdSetConfiguration API is optimized to change transfer length only and configur
1290:Generated_Source\PSoC5/USBFS_1.c ****             convert = (reg16 *) &CY_DMA_TDMEM_STRUCT_PTR[USBFS_1_DmaTd[epNumber]].TD0[0u];
1291:Generated_Source\PSoC5/USBFS_1.c ****             /* Set transfer length. */
1292:Generated_Source\PSoC5/USBFS_1.c ****             CY_SET_REG16(convert, USBFS_1_DMA_BYTES_REPEAT);
1293:Generated_Source\PSoC5/USBFS_1.c ****             /* CyDmaTdSetAddress API is optimized to change source address only. */
ARM GAS  C:\Users\Alex\AppData\Local\Temp\ccapzahD.s 			page 38


1294:Generated_Source\PSoC5/USBFS_1.c ****             convert = (reg16 *) &CY_DMA_TDMEM_STRUCT_PTR[USBFS_1_DmaTd[epNumber]].TD1[0u];
1295:Generated_Source\PSoC5/USBFS_1.c ****             CY_SET_REG16(convert,  LO16((uint32)USBFS_1_inDataPointer[epNumber] +
1296:Generated_Source\PSoC5/USBFS_1.c ****                                    (USBFS_1_DMA_BYTES_PER_BURST - USBFS_1_DMA_BYTES_REPEAT)));
1297:Generated_Source\PSoC5/USBFS_1.c ****         }
1298:Generated_Source\PSoC5/USBFS_1.c **** 
1299:Generated_Source\PSoC5/USBFS_1.c ****         /* CyDmaChSetInitialTd API is optimized to initialize TD. */
1300:Generated_Source\PSoC5/USBFS_1.c ****         CY_DMA_CH_STRUCT_PTR[USBFS_1_DmaChan[epNumber]].basic_status[1u] = USBFS_1_DmaTd[epNumber];
1301:Generated_Source\PSoC5/USBFS_1.c ****     }
1302:Generated_Source\PSoC5/USBFS_1.c **** #endif /* (USBFS_1_EP_MANAGEMENT_DMA_AUTO && (USBFS_1_EP_DMA_AUTO_OPT == 0u)) */
1303:Generated_Source\PSoC5/USBFS_1.c **** #endif /* (CY_PSOC3 || CY_PSOC5) */
1304:Generated_Source\PSoC5/USBFS_1.c **** 
1305:Generated_Source\PSoC5/USBFS_1.c **** 
1306:Generated_Source\PSoC5/USBFS_1.c **** /*******************************************************************************
1307:Generated_Source\PSoC5/USBFS_1.c **** * Function Name: USBFS_1_LoadInEP
1308:Generated_Source\PSoC5/USBFS_1.c **** ****************************************************************************//**
1309:Generated_Source\PSoC5/USBFS_1.c **** *
1310:Generated_Source\PSoC5/USBFS_1.c **** *  This function performs different functionality depending on the Component’s
1311:Generated_Source\PSoC5/USBFS_1.c **** *  configured Endpoint Buffer Management. This parameter is defined in
1312:Generated_Source\PSoC5/USBFS_1.c **** *  the Descriptor Root in Component Configure window.
1313:Generated_Source\PSoC5/USBFS_1.c **** *
1314:Generated_Source\PSoC5/USBFS_1.c **** *  *Manual (Static/Dynamic Allocation):*
1315:Generated_Source\PSoC5/USBFS_1.c **** *  This function loads and enables the specified USB data endpoint for an IN
1316:Generated_Source\PSoC5/USBFS_1.c **** *  data transfer.
1317:Generated_Source\PSoC5/USBFS_1.c **** *
1318:Generated_Source\PSoC5/USBFS_1.c **** *  *DMA with Manual Buffer Management:*
1319:Generated_Source\PSoC5/USBFS_1.c **** *  Configures DMA for a data transfer from system RAM to endpoint buffer.
1320:Generated_Source\PSoC5/USBFS_1.c **** *  Generates request for a transfer.
1321:Generated_Source\PSoC5/USBFS_1.c **** *
1322:Generated_Source\PSoC5/USBFS_1.c **** *  *DMA with Automatic Buffer Management:*
1323:Generated_Source\PSoC5/USBFS_1.c **** *  Configures DMA. This is required only once, so it is done only when parameter
1324:Generated_Source\PSoC5/USBFS_1.c **** *  pData is not NULL. When the pData pointer is NULL, the function skips this
1325:Generated_Source\PSoC5/USBFS_1.c **** *  task. Sets Data ready status: This generates the first DMA transfer and
1326:Generated_Source\PSoC5/USBFS_1.c **** *  prepares data in endpoint buffer.
1327:Generated_Source\PSoC5/USBFS_1.c **** *
1328:Generated_Source\PSoC5/USBFS_1.c **** *  \param epNumber Contains the data endpoint number.
1329:Generated_Source\PSoC5/USBFS_1.c **** *            Valid values are between 1 and 8.
1330:Generated_Source\PSoC5/USBFS_1.c **** *  \param *pData A pointer to a data array from which the data for the endpoint space
1331:Generated_Source\PSoC5/USBFS_1.c **** *          is loaded.
1332:Generated_Source\PSoC5/USBFS_1.c **** *  \param length The number of bytes to transfer from the array and then send as
1333:Generated_Source\PSoC5/USBFS_1.c **** *          a result of an IN request. Valid values are between 0 and 512
1334:Generated_Source\PSoC5/USBFS_1.c **** *          (1023 for DMA with Automatic Buffer Management mode). The value 512
1335:Generated_Source\PSoC5/USBFS_1.c **** *          is applicable if only one endpoint is used.
1336:Generated_Source\PSoC5/USBFS_1.c **** *
1337:Generated_Source\PSoC5/USBFS_1.c **** *
1338:Generated_Source\PSoC5/USBFS_1.c **** * \reentrant
1339:Generated_Source\PSoC5/USBFS_1.c **** *  No.
1340:Generated_Source\PSoC5/USBFS_1.c **** *
1341:Generated_Source\PSoC5/USBFS_1.c **** *******************************************************************************/
1342:Generated_Source\PSoC5/USBFS_1.c **** void USBFS_1_LoadInEP(uint8 epNumber, const uint8 pData[], uint16 length)
1343:Generated_Source\PSoC5/USBFS_1.c ****                                                                         
1344:Generated_Source\PSoC5/USBFS_1.c **** {
 806              		.loc 1 1344 0
 807              		.cfi_startproc
 808              		@ args = 0, pretend = 0, frame = 0
 809              		@ frame_needed = 0, uses_anonymous_args = 0
 810              		@ link register save eliminated.
 811              	.LVL57:
ARM GAS  C:\Users\Alex\AppData\Local\Temp\ccapzahD.s 			page 39


1345:Generated_Source\PSoC5/USBFS_1.c ****     if ((epNumber > USBFS_1_EP0) && (epNumber < USBFS_1_MAX_EP))
 812              		.loc 1 1345 0
 813 0000 431E     		subs	r3, r0, #1
 814 0002 DBB2     		uxtb	r3, r3
 815 0004 072B     		cmp	r3, #7
 816 0006 3CD8     		bhi	.L62
1344:Generated_Source\PSoC5/USBFS_1.c ****     if ((epNumber > USBFS_1_EP0) && (epNumber < USBFS_1_MAX_EP))
 817              		.loc 1 1344 0
 818 0008 F0B4     		push	{r4, r5, r6, r7}
 819              		.cfi_def_cfa_offset 16
 820              		.cfi_offset 4, -16
 821              		.cfi_offset 5, -12
 822              		.cfi_offset 6, -8
 823              		.cfi_offset 7, -4
1346:Generated_Source\PSoC5/USBFS_1.c ****     {
1347:Generated_Source\PSoC5/USBFS_1.c ****     #if (!USBFS_1_EP_MANAGEMENT_DMA_AUTO)
1348:Generated_Source\PSoC5/USBFS_1.c ****         /* Limit length to available buffer USB IP buffer size.*/
1349:Generated_Source\PSoC5/USBFS_1.c ****         if (length > (USBFS_1_EPX_DATA_BUF_MAX - USBFS_1_EP[epNumber].buffOffset))
 824              		.loc 1 1349 0
 825 000a 0746     		mov	r7, r0
 826 000c 00EB4004 		add	r4, r0, r0, lsl #1
 827 0010 A300     		lsls	r3, r4, #2
 828 0012 1C4C     		ldr	r4, .L63
 829 0014 2344     		add	r3, r3, r4
 830 0016 DB88     		ldrh	r3, [r3, #6]
 831 0018 9BB2     		uxth	r3, r3
 832 001a C3F50073 		rsb	r3, r3, #512
 833 001e 9A42     		cmp	r2, r3
 834 0020 08D9     		bls	.L55
1350:Generated_Source\PSoC5/USBFS_1.c ****         {
1351:Generated_Source\PSoC5/USBFS_1.c ****             length = USBFS_1_EPX_DATA_BUF_MAX - USBFS_1_EP[epNumber].buffOffset;
 835              		.loc 1 1351 0
 836 0022 00EB4002 		add	r2, r0, r0, lsl #1
 837              	.LVL58:
 838 0026 9300     		lsls	r3, r2, #2
 839 0028 2344     		add	r3, r3, r4
 840 002a DA88     		ldrh	r2, [r3, #6]
 841 002c 92B2     		uxth	r2, r2
 842 002e C2F50072 		rsb	r2, r2, #512
 843 0032 92B2     		uxth	r2, r2
 844              	.LVL59:
 845              	.L55:
1352:Generated_Source\PSoC5/USBFS_1.c ****         }
1353:Generated_Source\PSoC5/USBFS_1.c ****     #endif /* (!USBFS_1_EP_MANAGEMENT_DMA_AUTO) */
1354:Generated_Source\PSoC5/USBFS_1.c **** 
1355:Generated_Source\PSoC5/USBFS_1.c ****         /* Set count and data toggle. */
1356:Generated_Source\PSoC5/USBFS_1.c ****         USBFS_1_SIE_EP_BASE.sieEp[epNumber].epCnt0 = (uint8) HI8(length) | USBFS_1_EP[epNumber].epT
 846              		.loc 1 1356 0
 847 0034 00EB4004 		add	r4, r0, r0, lsl #1
 848 0038 A300     		lsls	r3, r4, #2
 849 003a 124C     		ldr	r4, .L63
 850 003c 2344     		add	r3, r3, r4
 851 003e DB78     		ldrb	r3, [r3, #3]	@ zero_extendqisi2
 852 0040 43EA1223 		orr	r3, r3, r2, lsr #8
 853 0044 104D     		ldr	r5, .L63+4
 854 0046 0401     		lsls	r4, r0, #4
 855 0048 2E19     		adds	r6, r5, r4
ARM GAS  C:\Users\Alex\AppData\Local\Temp\ccapzahD.s 			page 40


 856 004a 2B55     		strb	r3, [r5, r4]
1357:Generated_Source\PSoC5/USBFS_1.c ****         USBFS_1_SIE_EP_BASE.sieEp[epNumber].epCnt1 = (uint8) LO8(length);
 857              		.loc 1 1357 0
 858 004c D3B2     		uxtb	r3, r2
 859 004e 7370     		strb	r3, [r6, #1]
1358:Generated_Source\PSoC5/USBFS_1.c **** 
1359:Generated_Source\PSoC5/USBFS_1.c ****     #if (USBFS_1_EP_MANAGEMENT_MANUAL)
1360:Generated_Source\PSoC5/USBFS_1.c ****         if (NULL != pData)
 860              		.loc 1 1360 0
 861 0050 39B9     		cbnz	r1, .L59
 862              	.LBB2:
 863 0052 09E0     		b	.L57
 864              	.LVL60:
 865              	.L58:
1361:Generated_Source\PSoC5/USBFS_1.c ****         {
1362:Generated_Source\PSoC5/USBFS_1.c **** 			/* Copy data using arbiter data register. */
1363:Generated_Source\PSoC5/USBFS_1.c ****             uint16 i;
1364:Generated_Source\PSoC5/USBFS_1.c ****             for (i = 0u; i < length; ++i)
1365:Generated_Source\PSoC5/USBFS_1.c ****             {
1366:Generated_Source\PSoC5/USBFS_1.c ****                 USBFS_1_ARB_EP_BASE.arbEp[epNumber].rwDr = pData[i];
 866              		.loc 1 1366 0 discriminator 3
 867 0054 CE5C     		ldrb	r6, [r1, r3]	@ zero_extendqisi2
 868 0056 3D01     		lsls	r5, r7, #4
 869 0058 0C4C     		ldr	r4, .L63+8
 870 005a 6655     		strb	r6, [r4, r5]
1364:Generated_Source\PSoC5/USBFS_1.c ****             {
 871              		.loc 1 1364 0 discriminator 3
 872 005c 0133     		adds	r3, r3, #1
 873              	.LVL61:
 874 005e 9BB2     		uxth	r3, r3
 875              	.LVL62:
 876 0060 00E0     		b	.L56
 877              	.LVL63:
 878              	.L59:
 879              	.LBE2:
 880 0062 0023     		movs	r3, #0
 881              	.L56:
 882              	.LVL64:
 883              	.LBB3:
1364:Generated_Source\PSoC5/USBFS_1.c ****             {
 884              		.loc 1 1364 0 is_stmt 0 discriminator 1
 885 0064 9A42     		cmp	r2, r3
 886 0066 F5D8     		bhi	.L58
 887              	.LVL65:
 888              	.L57:
 889              	.LBE3:
1367:Generated_Source\PSoC5/USBFS_1.c ****             }
1368:Generated_Source\PSoC5/USBFS_1.c ****         }
1369:Generated_Source\PSoC5/USBFS_1.c **** 
1370:Generated_Source\PSoC5/USBFS_1.c ****         /* IN endpoint buffer is full - read to be read. */
1371:Generated_Source\PSoC5/USBFS_1.c ****         USBFS_1_EP[epNumber].apiEpState = USBFS_1_NO_EVENT_PENDING;
 890              		.loc 1 1371 0 is_stmt 1
 891 0068 4200     		lsls	r2, r0, #1
 892              	.LVL66:
 893 006a 0244     		add	r2, r2, r0
 894 006c 9300     		lsls	r3, r2, #2
 895 006e 054A     		ldr	r2, .L63
ARM GAS  C:\Users\Alex\AppData\Local\Temp\ccapzahD.s 			page 41


 896 0070 1344     		add	r3, r3, r2
 897 0072 0022     		movs	r2, #0
 898 0074 5A70     		strb	r2, [r3, #1]
1372:Generated_Source\PSoC5/USBFS_1.c **** 
1373:Generated_Source\PSoC5/USBFS_1.c ****         /* Arm IN endpoint. */
1374:Generated_Source\PSoC5/USBFS_1.c ****         USBFS_1_SIE_EP_BASE.sieEp[epNumber].epCr0 = USBFS_1_EP[epNumber].epMode;
 899              		.loc 1 1374 0
 900 0076 5A79     		ldrb	r2, [r3, #5]	@ zero_extendqisi2
 901 0078 D2B2     		uxtb	r2, r2
 902 007a 0001     		lsls	r0, r0, #4
 903              	.LVL67:
 904 007c 044B     		ldr	r3, .L63+12
 905 007e 1A54     		strb	r2, [r3, r0]
1375:Generated_Source\PSoC5/USBFS_1.c **** 
1376:Generated_Source\PSoC5/USBFS_1.c ****     #else
1377:Generated_Source\PSoC5/USBFS_1.c **** 
1378:Generated_Source\PSoC5/USBFS_1.c ****         #if (CY_PSOC3 || CY_PSOC5LP)
1379:Generated_Source\PSoC5/USBFS_1.c ****             /* Initialize DMA if it was not initialized. */
1380:Generated_Source\PSoC5/USBFS_1.c ****             if (DMA_INVALID_TD == USBFS_1_DmaTd[epNumber])
1381:Generated_Source\PSoC5/USBFS_1.c ****             {
1382:Generated_Source\PSoC5/USBFS_1.c ****                 USBFS_1_InitEP_DMA(epNumber, pData);
1383:Generated_Source\PSoC5/USBFS_1.c ****             }
1384:Generated_Source\PSoC5/USBFS_1.c ****         #endif /* (CY_PSOC3 || CY_PSOC5LP) */
1385:Generated_Source\PSoC5/USBFS_1.c **** 
1386:Generated_Source\PSoC5/USBFS_1.c ****         #if (USBFS_1_EP_MANAGEMENT_DMA_MANUAL)
1387:Generated_Source\PSoC5/USBFS_1.c ****             /* IN endpoint buffer will be fully loaded by DMA shortly. */
1388:Generated_Source\PSoC5/USBFS_1.c ****             USBFS_1_EP[epNumber].apiEpState = USBFS_1_NO_EVENT_PENDING;
1389:Generated_Source\PSoC5/USBFS_1.c **** 
1390:Generated_Source\PSoC5/USBFS_1.c ****             if ((pData != NULL) && (length > 0u))
1391:Generated_Source\PSoC5/USBFS_1.c ****             {
1392:Generated_Source\PSoC5/USBFS_1.c ****             #if (CY_PSOC4)
1393:Generated_Source\PSoC5/USBFS_1.c ****                 uint32 channelNum = (uint32) USBFS_1_DmaChan[epNumber];
1394:Generated_Source\PSoC5/USBFS_1.c **** 
1395:Generated_Source\PSoC5/USBFS_1.c ****                 /* Disable DMA channel: start configuration. */
1396:Generated_Source\PSoC5/USBFS_1.c ****                 USBFS_1_CyDmaChDisable(channelNum);
1397:Generated_Source\PSoC5/USBFS_1.c **** 
1398:Generated_Source\PSoC5/USBFS_1.c ****                 /* Configure source and destination. */
1399:Generated_Source\PSoC5/USBFS_1.c ****                 USBFS_1_CyDmaSetSrcAddress(channelNum, USBFS_1_DMA_DESCR0, (void*) pData);
1400:Generated_Source\PSoC5/USBFS_1.c ****                 USBFS_1_CyDmaSetDstAddress(channelNum, USBFS_1_DMA_DESCR0, (void*) &USBFS_1_ARB_EP_
1401:Generated_Source\PSoC5/USBFS_1.c **** 
1402:Generated_Source\PSoC5/USBFS_1.c ****                 /* Configure DMA descriptor. */
1403:Generated_Source\PSoC5/USBFS_1.c ****                 --length;
1404:Generated_Source\PSoC5/USBFS_1.c ****                 USBFS_1_CyDmaSetConfiguration(channelNum, USBFS_1_DMA_DESCR0, USBFS_1_DMA_COMMON_CF
1405:Generated_Source\PSoC5/USBFS_1.c ****                                                         CYDMA_BYTE | CYDMA_ELEMENT_WORD | CYDMA_INC
1406:Generated_Source\PSoC5/USBFS_1.c **** 
1407:Generated_Source\PSoC5/USBFS_1.c ****                 /* Validate descriptor to execute on following DMA request. */
1408:Generated_Source\PSoC5/USBFS_1.c ****                 USBFS_1_CyDmaValidateDescriptor(channelNum, USBFS_1_DMA_DESCR0);
1409:Generated_Source\PSoC5/USBFS_1.c **** 
1410:Generated_Source\PSoC5/USBFS_1.c ****                 /* Enable DMA channel: configuration complete. */
1411:Generated_Source\PSoC5/USBFS_1.c ****                 USBFS_1_CyDmaChEnable(channelNum);
1412:Generated_Source\PSoC5/USBFS_1.c ****             #else
1413:Generated_Source\PSoC5/USBFS_1.c ****                 /* Configure DMA to transfer data. */
1414:Generated_Source\PSoC5/USBFS_1.c ****                 (void) CyDmaChDisable(USBFS_1_DmaChan[epNumber]);
1415:Generated_Source\PSoC5/USBFS_1.c ****                 (void) CyDmaTdSetConfiguration(USBFS_1_DmaTd[epNumber], length, CY_DMA_DISABLE_TD, 
1416:Generated_Source\PSoC5/USBFS_1.c ****                 (void) CyDmaTdSetAddress(USBFS_1_DmaTd[epNumber], LO16((uint32) pData), LO16((uint3
1417:Generated_Source\PSoC5/USBFS_1.c **** 
1418:Generated_Source\PSoC5/USBFS_1.c ****                 /* Enable DMA channel. */
ARM GAS  C:\Users\Alex\AppData\Local\Temp\ccapzahD.s 			page 42


1419:Generated_Source\PSoC5/USBFS_1.c ****                 (void) CyDmaChSetInitialTd(USBFS_1_DmaChan[epNumber], USBFS_1_DmaTd[epNumber]);
1420:Generated_Source\PSoC5/USBFS_1.c ****                 (void) CyDmaChEnable(USBFS_1_DmaChan[epNumber], 1u);
1421:Generated_Source\PSoC5/USBFS_1.c ****             #endif /* (CY_PSOC4) */
1422:Generated_Source\PSoC5/USBFS_1.c **** 
1423:Generated_Source\PSoC5/USBFS_1.c ****                 /* Generate DMA request. */
1424:Generated_Source\PSoC5/USBFS_1.c ****                 USBFS_1_ARB_EP_BASE.arbEp[epNumber].epCfg |=  (uint8)  USBFS_1_ARB_EPX_CFG_DMA_REQ;
1425:Generated_Source\PSoC5/USBFS_1.c ****                 USBFS_1_ARB_EP_BASE.arbEp[epNumber].epCfg &=  (uint8) ~USBFS_1_ARB_EPX_CFG_DMA_REQ;
1426:Generated_Source\PSoC5/USBFS_1.c **** 
1427:Generated_Source\PSoC5/USBFS_1.c ****                 /* IN endpoint will be armed in ARB_ISR(source: IN_BUF_FULL) after first DMA transf
1428:Generated_Source\PSoC5/USBFS_1.c ****             }
1429:Generated_Source\PSoC5/USBFS_1.c ****             else
1430:Generated_Source\PSoC5/USBFS_1.c ****             {
1431:Generated_Source\PSoC5/USBFS_1.c ****                 /* When zero-length packet: arm IN endpoint directly. */
1432:Generated_Source\PSoC5/USBFS_1.c ****                 USBFS_1_SIE_EP_BASE.sieEp[epNumber].epCr0 = USBFS_1_EP[epNumber].epMode;
1433:Generated_Source\PSoC5/USBFS_1.c ****             }
1434:Generated_Source\PSoC5/USBFS_1.c ****         #endif /* (USBFS_1_EP_MANAGEMENT_DMA_MANUAL) */
1435:Generated_Source\PSoC5/USBFS_1.c **** 
1436:Generated_Source\PSoC5/USBFS_1.c ****         #if (USBFS_1_EP_MANAGEMENT_DMA_AUTO)
1437:Generated_Source\PSoC5/USBFS_1.c ****             if (pData != NULL)
1438:Generated_Source\PSoC5/USBFS_1.c ****             {
1439:Generated_Source\PSoC5/USBFS_1.c ****             #if (CY_PSOC4)
1440:Generated_Source\PSoC5/USBFS_1.c ****                 uint32 channelNum = (uint32) USBFS_1_DmaChan[epNumber];
1441:Generated_Source\PSoC5/USBFS_1.c **** 
1442:Generated_Source\PSoC5/USBFS_1.c ****                 /* Store address of buffer. */
1443:Generated_Source\PSoC5/USBFS_1.c ****                 USBFS_1_DmaEpBufferAddrBackup[epNumber] = (uint32) pData;
1444:Generated_Source\PSoC5/USBFS_1.c **** 
1445:Generated_Source\PSoC5/USBFS_1.c ****                 /* Disable DMA channel: start configuration. */
1446:Generated_Source\PSoC5/USBFS_1.c ****                 USBFS_1_CyDmaChDisable(channelNum);
1447:Generated_Source\PSoC5/USBFS_1.c **** 
1448:Generated_Source\PSoC5/USBFS_1.c ****                 /* Set destination address. */
1449:Generated_Source\PSoC5/USBFS_1.c ****                 USBFS_1_CyDmaSetDstAddress(channelNum, USBFS_1_DMA_DESCR0, (void*) &USBFS_1_ARB_EP_
1450:Generated_Source\PSoC5/USBFS_1.c ****                 USBFS_1_CyDmaSetDstAddress(channelNum, USBFS_1_DMA_DESCR1, (void*) &USBFS_1_ARB_EP_
1451:Generated_Source\PSoC5/USBFS_1.c **** 
1452:Generated_Source\PSoC5/USBFS_1.c ****                 /* Configure DMA descriptor. */
1453:Generated_Source\PSoC5/USBFS_1.c ****                 USBFS_1_CyDmaSetConfiguration(channelNum, USBFS_1_DMA_DESCR0, USBFS_1_DMA_COMMON_CF
1454:Generated_Source\PSoC5/USBFS_1.c ****                                                         CYDMA_BYTE | CYDMA_ELEMENT_WORD | CYDMA_INC
1455:Generated_Source\PSoC5/USBFS_1.c **** 
1456:Generated_Source\PSoC5/USBFS_1.c ****                 /* Configure DMA descriptor. */
1457:Generated_Source\PSoC5/USBFS_1.c ****                 USBFS_1_CyDmaSetConfiguration(channelNum, USBFS_1_DMA_DESCR1, USBFS_1_DMA_COMMON_CF
1458:Generated_Source\PSoC5/USBFS_1.c ****                                                         CYDMA_BYTE | CYDMA_ELEMENT_WORD | CYDMA_INC
1459:Generated_Source\PSoC5/USBFS_1.c **** 
1460:Generated_Source\PSoC5/USBFS_1.c ****                 /* Enable interrupt from DMA channel. */
1461:Generated_Source\PSoC5/USBFS_1.c ****                 USBFS_1_CyDmaSetInterruptMask(channelNum);
1462:Generated_Source\PSoC5/USBFS_1.c **** 
1463:Generated_Source\PSoC5/USBFS_1.c **** 
1464:Generated_Source\PSoC5/USBFS_1.c ****                 /* Enable DMA channel: configuration complete. */
1465:Generated_Source\PSoC5/USBFS_1.c ****                 USBFS_1_CyDmaChEnable(channelNum);
1466:Generated_Source\PSoC5/USBFS_1.c **** 
1467:Generated_Source\PSoC5/USBFS_1.c ****             #else
1468:Generated_Source\PSoC5/USBFS_1.c ****                 (void) CyDmaChDisable(USBFS_1_DmaChan[epNumber]);
1469:Generated_Source\PSoC5/USBFS_1.c **** 
1470:Generated_Source\PSoC5/USBFS_1.c ****                 #if (USBFS_1_EP_DMA_AUTO_OPT == 0u)
1471:Generated_Source\PSoC5/USBFS_1.c ****                     USBFS_1_inLength[epNumber] = length;
1472:Generated_Source\PSoC5/USBFS_1.c ****                     USBFS_1_inDataPointer[epNumber] = pData;
1473:Generated_Source\PSoC5/USBFS_1.c **** 
1474:Generated_Source\PSoC5/USBFS_1.c ****                     /* Configure DMA to send data only for first burst */
1475:Generated_Source\PSoC5/USBFS_1.c ****                     (void) CyDmaTdSetConfiguration(USBFS_1_DmaTd[epNumber],
ARM GAS  C:\Users\Alex\AppData\Local\Temp\ccapzahD.s 			page 43


1476:Generated_Source\PSoC5/USBFS_1.c ****                         (length > USBFS_1_DMA_BYTES_PER_BURST) ? USBFS_1_DMA_BYTES_PER_BURST : leng
1477:Generated_Source\PSoC5/USBFS_1.c ****                         USBFS_1_DmaNextTd[epNumber], TD_TERMIN_EN | TD_INC_SRC_ADR);
1478:Generated_Source\PSoC5/USBFS_1.c ****                     (void) CyDmaTdSetAddress(USBFS_1_DmaTd[epNumber], LO16((uint32) pData),
1479:Generated_Source\PSoC5/USBFS_1.c ****                                                                                LO16((uint32) &USBFS
1480:Generated_Source\PSoC5/USBFS_1.c **** 
1481:Generated_Source\PSoC5/USBFS_1.c ****                     /* The second TD will be executed only when the first one fails.
1482:Generated_Source\PSoC5/USBFS_1.c ****                     *  The intention of this TD is to generate NRQ interrupt
1483:Generated_Source\PSoC5/USBFS_1.c ****                     *  and repeat 2 last bytes of the first burst.
1484:Generated_Source\PSoC5/USBFS_1.c ****                     */
1485:Generated_Source\PSoC5/USBFS_1.c ****                     (void) CyDmaTdSetConfiguration(USBFS_1_DmaNextTd[epNumber], 1u,
1486:Generated_Source\PSoC5/USBFS_1.c ****                                                    USBFS_1_DmaNextTd[epNumber],
1487:Generated_Source\PSoC5/USBFS_1.c ****                                                    USBFS_1_epX_TD_TERMOUT_EN[epNumber]);
1488:Generated_Source\PSoC5/USBFS_1.c **** 
1489:Generated_Source\PSoC5/USBFS_1.c ****                     /* Configure DmaNextTd to clear Data Ready status. */
1490:Generated_Source\PSoC5/USBFS_1.c ****                     (void) CyDmaTdSetAddress(USBFS_1_DmaNextTd[epNumber], LO16((uint32) &clearInDat
1491:Generated_Source\PSoC5/USBFS_1.c ****                                                                                    LO16((uint32) &U
1492:Generated_Source\PSoC5/USBFS_1.c ****                 #else
1493:Generated_Source\PSoC5/USBFS_1.c ****                     /* Configure DMA to send all data. */
1494:Generated_Source\PSoC5/USBFS_1.c ****                     (void) CyDmaTdSetConfiguration(USBFS_1_DmaTd[epNumber], length,
1495:Generated_Source\PSoC5/USBFS_1.c ****                                                    USBFS_1_DmaTd[epNumber], TD_TERMIN_EN | TD_INC_S
1496:Generated_Source\PSoC5/USBFS_1.c ****                     (void) CyDmaTdSetAddress(USBFS_1_DmaTd[epNumber], LO16((uint32) pData),
1497:Generated_Source\PSoC5/USBFS_1.c ****                                                                                LO16((uint32) &USBFS
1498:Generated_Source\PSoC5/USBFS_1.c ****                 #endif /* (USBFS_1_EP_DMA_AUTO_OPT == 0u) */
1499:Generated_Source\PSoC5/USBFS_1.c **** 
1500:Generated_Source\PSoC5/USBFS_1.c ****                 /* Clear any potential pending DMA requests before starting DMA channel to transfer
1501:Generated_Source\PSoC5/USBFS_1.c ****                 (void) CyDmaClearPendingDrq(USBFS_1_DmaChan[epNumber]);
1502:Generated_Source\PSoC5/USBFS_1.c ****                 /* Enable DMA. */
1503:Generated_Source\PSoC5/USBFS_1.c ****                 (void) CyDmaChSetInitialTd(USBFS_1_DmaChan[epNumber], USBFS_1_DmaTd[epNumber]);
1504:Generated_Source\PSoC5/USBFS_1.c ****                 (void) CyDmaChEnable(USBFS_1_DmaChan[epNumber], 1u);
1505:Generated_Source\PSoC5/USBFS_1.c ****             #endif /* (CY_PSOC4) */
1506:Generated_Source\PSoC5/USBFS_1.c ****             }
1507:Generated_Source\PSoC5/USBFS_1.c ****             else
1508:Generated_Source\PSoC5/USBFS_1.c ****             {
1509:Generated_Source\PSoC5/USBFS_1.c ****                 /* IN endpoint buffer (32 bytes) will shortly be preloaded by DMA. */
1510:Generated_Source\PSoC5/USBFS_1.c ****                 USBFS_1_EP[epNumber].apiEpState = USBFS_1_NO_EVENT_PENDING;
1511:Generated_Source\PSoC5/USBFS_1.c **** 
1512:Generated_Source\PSoC5/USBFS_1.c ****                 if (length > 0u)
1513:Generated_Source\PSoC5/USBFS_1.c ****                 {
1514:Generated_Source\PSoC5/USBFS_1.c ****                 #if (CY_PSOC4)
1515:Generated_Source\PSoC5/USBFS_1.c ****                     uint32 lengthDescr0, lengthDescr1;
1516:Generated_Source\PSoC5/USBFS_1.c ****                     uint32 channelNum = (uint32) USBFS_1_DmaChan[epNumber];
1517:Generated_Source\PSoC5/USBFS_1.c **** 
1518:Generated_Source\PSoC5/USBFS_1.c ****                     /* Get number of full bursts. */
1519:Generated_Source\PSoC5/USBFS_1.c ****                     USBFS_1_DmaEpBurstCnt[epNumber] = (uint8) (length / USBFS_1_DMA_BYTES_PER_BURST
1520:Generated_Source\PSoC5/USBFS_1.c **** 
1521:Generated_Source\PSoC5/USBFS_1.c ****                     /* Get number of elements in the last burst. */
1522:Generated_Source\PSoC5/USBFS_1.c ****                     USBFS_1_DmaEpLastBurstEl[epNumber] = (uint8) (length % USBFS_1_DMA_BYTES_PER_BU
1523:Generated_Source\PSoC5/USBFS_1.c **** 
1524:Generated_Source\PSoC5/USBFS_1.c ****                     /* Get total number of bursts. */
1525:Generated_Source\PSoC5/USBFS_1.c ****                     USBFS_1_DmaEpBurstCnt[epNumber] += (0u != USBFS_1_DmaEpLastBurstEl[epNumber]) ?
1526:Generated_Source\PSoC5/USBFS_1.c **** 
1527:Generated_Source\PSoC5/USBFS_1.c ****                     /* Adjust number of data elements transferred in last burst. */
1528:Generated_Source\PSoC5/USBFS_1.c ****                     USBFS_1_DmaEpLastBurstEl[epNumber] = (0u != USBFS_1_DmaEpLastBurstEl[epNumber])
1529:Generated_Source\PSoC5/USBFS_1.c ****                                                                           (USBFS_1_DmaEpLastBurstEl
1530:Generated_Source\PSoC5/USBFS_1.c ****                                                                           (USBFS_1_DMA_BYTES_PER_BU
1531:Generated_Source\PSoC5/USBFS_1.c **** 
1532:Generated_Source\PSoC5/USBFS_1.c ****                     /* Get number of data elements to transfer for descriptor 0 and 1. */
ARM GAS  C:\Users\Alex\AppData\Local\Temp\ccapzahD.s 			page 44


1533:Generated_Source\PSoC5/USBFS_1.c ****                     lengthDescr0 = (1u == USBFS_1_DmaEpBurstCnt[epNumber]) ? USBFS_1_DmaEpLastBurst
1534:Generated_Source\PSoC5/USBFS_1.c ****                     lengthDescr1 = (2u == USBFS_1_DmaEpBurstCnt[epNumber]) ? USBFS_1_DmaEpLastBurst
1535:Generated_Source\PSoC5/USBFS_1.c **** 
1536:Generated_Source\PSoC5/USBFS_1.c **** 
1537:Generated_Source\PSoC5/USBFS_1.c ****                     /* Mark which descriptor is last one to execute. */
1538:Generated_Source\PSoC5/USBFS_1.c ****                     USBFS_1_DmaEpLastBurstEl[epNumber] |= (0u != (USBFS_1_DmaEpBurstCnt[epNumber] &
1539:Generated_Source\PSoC5/USBFS_1.c ****                                                                             USBFS_1_DMA_DESCR0_MASK
1540:Generated_Source\PSoC5/USBFS_1.c **** 
1541:Generated_Source\PSoC5/USBFS_1.c ****                     /* Restore DMA settings for current transfer. */
1542:Generated_Source\PSoC5/USBFS_1.c ****                     USBFS_1_CyDmaChDisable(channelNum);
1543:Generated_Source\PSoC5/USBFS_1.c **** 
1544:Generated_Source\PSoC5/USBFS_1.c ****                     /* Restore destination address for input endpoint. */
1545:Generated_Source\PSoC5/USBFS_1.c ****                     USBFS_1_CyDmaSetSrcAddress(channelNum, USBFS_1_DMA_DESCR0, (void*) ((uint32) US
1546:Generated_Source\PSoC5/USBFS_1.c ****                     USBFS_1_CyDmaSetSrcAddress(channelNum, USBFS_1_DMA_DESCR1, (void*) ((uint32) US
1547:Generated_Source\PSoC5/USBFS_1.c ****                                                                                                    
1548:Generated_Source\PSoC5/USBFS_1.c **** 
1549:Generated_Source\PSoC5/USBFS_1.c ****                     /* Set number of elements to transfer. */
1550:Generated_Source\PSoC5/USBFS_1.c ****                     USBFS_1_CyDmaSetNumDataElements(channelNum, USBFS_1_DMA_DESCR0, lengthDescr0);
1551:Generated_Source\PSoC5/USBFS_1.c ****                     USBFS_1_CyDmaSetNumDataElements(channelNum, USBFS_1_DMA_DESCR1, lengthDescr1);
1552:Generated_Source\PSoC5/USBFS_1.c **** 
1553:Generated_Source\PSoC5/USBFS_1.c ****                     /* Validate descriptor 0 and command to start with it. */
1554:Generated_Source\PSoC5/USBFS_1.c ****                     USBFS_1_CyDmaValidateDescriptor(channelNum, USBFS_1_DMA_DESCR0);
1555:Generated_Source\PSoC5/USBFS_1.c ****                     USBFS_1_CyDmaSetDescriptor0Next(channelNum);
1556:Generated_Source\PSoC5/USBFS_1.c **** 
1557:Generated_Source\PSoC5/USBFS_1.c ****                     /* Validate descriptor 1. */
1558:Generated_Source\PSoC5/USBFS_1.c ****                     if (USBFS_1_DmaEpBurstCnt[epNumber] > 1u)
1559:Generated_Source\PSoC5/USBFS_1.c ****                     {
1560:Generated_Source\PSoC5/USBFS_1.c ****                         USBFS_1_CyDmaValidateDescriptor(channelNum, USBFS_1_DMA_DESCR1); 
1561:Generated_Source\PSoC5/USBFS_1.c ****                     }                   
1562:Generated_Source\PSoC5/USBFS_1.c **** 
1563:Generated_Source\PSoC5/USBFS_1.c ****                     /* Adjust burst counter taking to account: 2 valid descriptors and interrupt tr
1564:Generated_Source\PSoC5/USBFS_1.c ****                     USBFS_1_DmaEpBurstCnt[epNumber] = USBFS_1_DMA_GET_BURST_CNT(USBFS_1_DmaEpBurstC
1565:Generated_Source\PSoC5/USBFS_1.c **** 
1566:Generated_Source\PSoC5/USBFS_1.c ****                     /* Enable DMA channel: configuration complete. */
1567:Generated_Source\PSoC5/USBFS_1.c ****                     USBFS_1_CyDmaChEnable(channelNum);
1568:Generated_Source\PSoC5/USBFS_1.c **** 
1569:Generated_Source\PSoC5/USBFS_1.c ****                 #elif (USBFS_1_EP_DMA_AUTO_OPT == 0u)
1570:Generated_Source\PSoC5/USBFS_1.c ****                     USBFS_1_inLength[epNumber]  = length;
1571:Generated_Source\PSoC5/USBFS_1.c ****                     USBFS_1_inBufFull[epNumber] = 0u;
1572:Generated_Source\PSoC5/USBFS_1.c **** 
1573:Generated_Source\PSoC5/USBFS_1.c ****                     (void) CyDmaChDisable(USBFS_1_DmaChan[epNumber]);
1574:Generated_Source\PSoC5/USBFS_1.c ****                     /* Configure DMA to send data only for first burst. */
1575:Generated_Source\PSoC5/USBFS_1.c ****                     (void) CyDmaTdSetConfiguration(
1576:Generated_Source\PSoC5/USBFS_1.c ****                         USBFS_1_DmaTd[epNumber], (length > USBFS_1_DMA_BYTES_PER_BURST) ?
1577:Generated_Source\PSoC5/USBFS_1.c ****                         USBFS_1_DMA_BYTES_PER_BURST : length,
1578:Generated_Source\PSoC5/USBFS_1.c ****                         USBFS_1_DmaNextTd[epNumber], TD_TERMIN_EN | TD_INC_SRC_ADR );
1579:Generated_Source\PSoC5/USBFS_1.c ****                     (void) CyDmaTdSetAddress(USBFS_1_DmaTd[epNumber], LO16((uint32)  USBFS_1_inData
1580:Generated_Source\PSoC5/USBFS_1.c ****                                                                                LO16((uint32) &USBFS
1581:Generated_Source\PSoC5/USBFS_1.c ****                     /* Clear Any potential pending DMA requests before starting DMA channel to tran
1582:Generated_Source\PSoC5/USBFS_1.c ****                     (void) CyDmaClearPendingDrq(USBFS_1_DmaChan[epNumber]);
1583:Generated_Source\PSoC5/USBFS_1.c ****                     /* Enable DMA. */
1584:Generated_Source\PSoC5/USBFS_1.c ****                     (void) CyDmaChSetInitialTd(USBFS_1_DmaChan[epNumber], USBFS_1_DmaTd[epNumber]);
1585:Generated_Source\PSoC5/USBFS_1.c ****                     (void) CyDmaChEnable(USBFS_1_DmaChan[epNumber], 1u);
1586:Generated_Source\PSoC5/USBFS_1.c ****                 #endif /* (CY_PSOC4) */
1587:Generated_Source\PSoC5/USBFS_1.c **** 
1588:Generated_Source\PSoC5/USBFS_1.c ****                 #if !defined (USBFS_1_MANUAL_IN_EP_ARM)
1589:Generated_Source\PSoC5/USBFS_1.c ****                     /* Set IN data ready to generate DMA request to load data into endpoint buffer.
ARM GAS  C:\Users\Alex\AppData\Local\Temp\ccapzahD.s 			page 45


1590:Generated_Source\PSoC5/USBFS_1.c ****                     USBFS_1_ARB_EP_BASE.arbEp[epNumber].epCfg |= USBFS_1_ARB_EPX_CFG_IN_DATA_RDY;
1591:Generated_Source\PSoC5/USBFS_1.c ****                 #endif  /* (USBFS_1_MANUAL_IN_EP_ARM) */
1592:Generated_Source\PSoC5/USBFS_1.c **** 
1593:Generated_Source\PSoC5/USBFS_1.c ****                     /* IN endpoint will be armed in ARB_ISR(source: IN_BUF_FULL) after first DMA tr
1594:Generated_Source\PSoC5/USBFS_1.c ****                 }
1595:Generated_Source\PSoC5/USBFS_1.c ****                 else
1596:Generated_Source\PSoC5/USBFS_1.c ****                 {
1597:Generated_Source\PSoC5/USBFS_1.c ****                     /* When zero-length packet: arm IN endpoint directly. */
1598:Generated_Source\PSoC5/USBFS_1.c ****                     USBFS_1_SIE_EP_BASE.sieEp[epNumber].epCr0 = USBFS_1_EP[epNumber].epMode;
1599:Generated_Source\PSoC5/USBFS_1.c ****                 }
1600:Generated_Source\PSoC5/USBFS_1.c ****             }
1601:Generated_Source\PSoC5/USBFS_1.c ****         #endif /* (USBFS_1_EP_MANAGEMENT_DMA_AUTO) */
1602:Generated_Source\PSoC5/USBFS_1.c ****     #endif /* (USBFS_1_EP_MANAGEMENT_MANUAL) */
1603:Generated_Source\PSoC5/USBFS_1.c ****     }
1604:Generated_Source\PSoC5/USBFS_1.c **** }
 906              		.loc 1 1604 0
 907 0080 F0BC     		pop	{r4, r5, r6, r7}
 908              		.cfi_restore 7
 909              		.cfi_restore 6
 910              		.cfi_restore 5
 911              		.cfi_restore 4
 912              		.cfi_def_cfa_offset 0
 913              	.L62:
 914 0082 7047     		bx	lr
 915              	.L64:
 916              		.align	2
 917              	.L63:
 918 0084 00000000 		.word	USBFS_1_EP
 919 0088 FC5F0040 		.word	1073766396
 920 008c 78600040 		.word	1073766520
 921 0090 FE5F0040 		.word	1073766398
 922              		.cfi_endproc
 923              	.LFE11:
 924              		.size	USBFS_1_LoadInEP, .-USBFS_1_LoadInEP
 925              		.section	.text.USBFS_1_EnableOutEP,"ax",%progbits
 926              		.align	2
 927              		.global	USBFS_1_EnableOutEP
 928              		.thumb
 929              		.thumb_func
 930              		.type	USBFS_1_EnableOutEP, %function
 931              	USBFS_1_EnableOutEP:
 932              	.LFB13:
1605:Generated_Source\PSoC5/USBFS_1.c **** 
1606:Generated_Source\PSoC5/USBFS_1.c **** 
1607:Generated_Source\PSoC5/USBFS_1.c **** /*******************************************************************************
1608:Generated_Source\PSoC5/USBFS_1.c **** * Function Name: USBFS_1_ReadOutEP
1609:Generated_Source\PSoC5/USBFS_1.c **** ****************************************************************************//**
1610:Generated_Source\PSoC5/USBFS_1.c **** *
1611:Generated_Source\PSoC5/USBFS_1.c **** *   This function performs different functionality depending on the Component’s
1612:Generated_Source\PSoC5/USBFS_1.c **** *   configured Endpoint Buffer Management. This parameter is defined in the
1613:Generated_Source\PSoC5/USBFS_1.c **** *   Descriptor Root in Component Configure window.
1614:Generated_Source\PSoC5/USBFS_1.c **** *
1615:Generated_Source\PSoC5/USBFS_1.c **** *   *Manual (Static/Dynamic Allocation):*
1616:Generated_Source\PSoC5/USBFS_1.c **** *   This function moves the specified number of bytes from endpoint buffer to
1617:Generated_Source\PSoC5/USBFS_1.c **** *   system RAM. The number of bytes actually transferred from endpoint buffer to
1618:Generated_Source\PSoC5/USBFS_1.c **** *   system RAM is the lesser of the actual number of bytes sent by the host or
1619:Generated_Source\PSoC5/USBFS_1.c **** *   the number of bytes requested by the length parameter.
ARM GAS  C:\Users\Alex\AppData\Local\Temp\ccapzahD.s 			page 46


1620:Generated_Source\PSoC5/USBFS_1.c **** *
1621:Generated_Source\PSoC5/USBFS_1.c **** *   *DMA with Manual Buffer Management:*
1622:Generated_Source\PSoC5/USBFS_1.c **** *   Configure DMA to transfer data from endpoint buffer to system RAM. Generate
1623:Generated_Source\PSoC5/USBFS_1.c **** *   a DMA request. The firmware must wait until the DMA completes the data
1624:Generated_Source\PSoC5/USBFS_1.c **** *   transfer after calling the USBFS_1_ReadOutEP() API. For example,
1625:Generated_Source\PSoC5/USBFS_1.c **** *   by checking EPstate:
1626:Generated_Source\PSoC5/USBFS_1.c **** *
1627:Generated_Source\PSoC5/USBFS_1.c **** *   \snippet /USBFS_sut_02.cydsn/main.c checking EPstatey
1628:Generated_Source\PSoC5/USBFS_1.c **** *
1629:Generated_Source\PSoC5/USBFS_1.c **** *   The USBFS_EnableOutEP() has to be called to allow host to write data into
1630:Generated_Source\PSoC5/USBFS_1.c **** *   the endpoint buffer after DMA has completed transfer data from OUT endpoint
1631:Generated_Source\PSoC5/USBFS_1.c **** *   buffer to SRAM.
1632:Generated_Source\PSoC5/USBFS_1.c **** *
1633:Generated_Source\PSoC5/USBFS_1.c **** *   *DMA with Automatic Buffer Management:*
1634:Generated_Source\PSoC5/USBFS_1.c **** *   Configure DMA. This is required only once and automatically generates DMA
1635:Generated_Source\PSoC5/USBFS_1.c **** *   requests as data arrives
1636:Generated_Source\PSoC5/USBFS_1.c **** *
1637:Generated_Source\PSoC5/USBFS_1.c **** *  \param epNumber: Contains the data endpoint number.
1638:Generated_Source\PSoC5/USBFS_1.c **** *            Valid values are between 1 and 8.
1639:Generated_Source\PSoC5/USBFS_1.c **** *  \param pData: A pointer to a data array from which the data for the endpoint
1640:Generated_Source\PSoC5/USBFS_1.c **** *         space is loaded.
1641:Generated_Source\PSoC5/USBFS_1.c **** *  \param length: The number of bytes to transfer from the USB Out endpoint and
1642:Generated_Source\PSoC5/USBFS_1.c **** *          loads it into data array. Valid values are between 0 and 1023. The
1643:Generated_Source\PSoC5/USBFS_1.c **** *          function moves fewer than the requested number of bytes if the host
1644:Generated_Source\PSoC5/USBFS_1.c **** *          sends fewer bytes than requested.
1645:Generated_Source\PSoC5/USBFS_1.c **** *
1646:Generated_Source\PSoC5/USBFS_1.c **** * \return
1647:Generated_Source\PSoC5/USBFS_1.c **** *  Number of bytes received, 0 for an invalid endpoint.
1648:Generated_Source\PSoC5/USBFS_1.c **** *
1649:Generated_Source\PSoC5/USBFS_1.c **** * \reentrant
1650:Generated_Source\PSoC5/USBFS_1.c **** *  No.
1651:Generated_Source\PSoC5/USBFS_1.c **** *
1652:Generated_Source\PSoC5/USBFS_1.c **** *******************************************************************************/
1653:Generated_Source\PSoC5/USBFS_1.c **** uint16 USBFS_1_ReadOutEP(uint8 epNumber, uint8 pData[], uint16 length)
1654:Generated_Source\PSoC5/USBFS_1.c ****                                                                         
1655:Generated_Source\PSoC5/USBFS_1.c **** {
1656:Generated_Source\PSoC5/USBFS_1.c ****     if ((pData != NULL) && (epNumber > USBFS_1_EP0) && (epNumber < USBFS_1_MAX_EP))
1657:Generated_Source\PSoC5/USBFS_1.c ****     {
1658:Generated_Source\PSoC5/USBFS_1.c ****     #if (!USBFS_1_EP_MANAGEMENT_DMA_AUTO)
1659:Generated_Source\PSoC5/USBFS_1.c ****         /* Adjust requested length to available data. */
1660:Generated_Source\PSoC5/USBFS_1.c ****         length = (length > USBFS_1_GetEPCount(epNumber)) ? USBFS_1_GetEPCount(epNumber) : length;
1661:Generated_Source\PSoC5/USBFS_1.c ****     #endif /* (!USBFS_1_EP_MANAGEMENT_DMA_AUTO) */
1662:Generated_Source\PSoC5/USBFS_1.c **** 
1663:Generated_Source\PSoC5/USBFS_1.c ****     #if (USBFS_1_EP_MANAGEMENT_MANUAL)
1664:Generated_Source\PSoC5/USBFS_1.c ****         {
1665:Generated_Source\PSoC5/USBFS_1.c ****             /* Copy data using arbiter data register. */
1666:Generated_Source\PSoC5/USBFS_1.c ****             uint16 i;
1667:Generated_Source\PSoC5/USBFS_1.c ****             for (i = 0u; i < length; ++i)
1668:Generated_Source\PSoC5/USBFS_1.c ****             {
1669:Generated_Source\PSoC5/USBFS_1.c ****                 pData[i] = (uint8) USBFS_1_ARB_EP_BASE.arbEp[epNumber].rwDr;
1670:Generated_Source\PSoC5/USBFS_1.c ****             }
1671:Generated_Source\PSoC5/USBFS_1.c ****         }
1672:Generated_Source\PSoC5/USBFS_1.c **** 
1673:Generated_Source\PSoC5/USBFS_1.c ****         /* Arm OUT endpoint after data has been copied from endpoint buffer. */
1674:Generated_Source\PSoC5/USBFS_1.c ****         USBFS_1_EnableOutEP(epNumber);
1675:Generated_Source\PSoC5/USBFS_1.c ****     #else
1676:Generated_Source\PSoC5/USBFS_1.c **** 
ARM GAS  C:\Users\Alex\AppData\Local\Temp\ccapzahD.s 			page 47


1677:Generated_Source\PSoC5/USBFS_1.c ****         #if (CY_PSOC3 || CY_PSOC5LP)
1678:Generated_Source\PSoC5/USBFS_1.c ****             /* Initialize DMA if it was not initialized. */
1679:Generated_Source\PSoC5/USBFS_1.c ****             if (DMA_INVALID_TD == USBFS_1_DmaTd[epNumber])
1680:Generated_Source\PSoC5/USBFS_1.c ****             {
1681:Generated_Source\PSoC5/USBFS_1.c ****                 USBFS_1_InitEP_DMA(epNumber, pData);
1682:Generated_Source\PSoC5/USBFS_1.c ****             }
1683:Generated_Source\PSoC5/USBFS_1.c ****         #endif /* (CY_PSOC3 || CY_PSOC5LP) */
1684:Generated_Source\PSoC5/USBFS_1.c **** 
1685:Generated_Source\PSoC5/USBFS_1.c ****         #if (USBFS_1_EP_MANAGEMENT_DMA_MANUAL)
1686:Generated_Source\PSoC5/USBFS_1.c ****         #if (CY_PSOC4)
1687:Generated_Source\PSoC5/USBFS_1.c ****         {
1688:Generated_Source\PSoC5/USBFS_1.c ****             uint32 channelNum = (uint32) USBFS_1_DmaChan[epNumber];
1689:Generated_Source\PSoC5/USBFS_1.c **** 
1690:Generated_Source\PSoC5/USBFS_1.c ****             /* Disable DMA channel: start configuration. */
1691:Generated_Source\PSoC5/USBFS_1.c ****             USBFS_1_CyDmaChDisable(channelNum);
1692:Generated_Source\PSoC5/USBFS_1.c **** 
1693:Generated_Source\PSoC5/USBFS_1.c ****             /* Configure source and destination. */
1694:Generated_Source\PSoC5/USBFS_1.c ****             USBFS_1_CyDmaSetSrcAddress(channelNum, USBFS_1_DMA_DESCR0, (void*) &USBFS_1_ARB_EP_BASE
1695:Generated_Source\PSoC5/USBFS_1.c ****             USBFS_1_CyDmaSetDstAddress(channelNum, USBFS_1_DMA_DESCR0, (void*) pData);
1696:Generated_Source\PSoC5/USBFS_1.c **** 
1697:Generated_Source\PSoC5/USBFS_1.c ****             /* Configure DMA descriptor. */
1698:Generated_Source\PSoC5/USBFS_1.c ****             USBFS_1_CyDmaSetConfiguration(channelNum, USBFS_1_DMA_DESCR0, USBFS_1_DMA_COMMON_CFG | 
1699:Generated_Source\PSoC5/USBFS_1.c ****                                                     CYDMA_BYTE | CYDMA_WORD_ELEMENT | CYDMA_INC_DST
1700:Generated_Source\PSoC5/USBFS_1.c **** 
1701:Generated_Source\PSoC5/USBFS_1.c ****             /* Validate descriptor to execute on following DMA request. */
1702:Generated_Source\PSoC5/USBFS_1.c ****             USBFS_1_CyDmaValidateDescriptor(channelNum, USBFS_1_DMA_DESCR0);
1703:Generated_Source\PSoC5/USBFS_1.c **** 
1704:Generated_Source\PSoC5/USBFS_1.c ****             /* Enable DMA channel: configuration complete. */
1705:Generated_Source\PSoC5/USBFS_1.c ****             USBFS_1_CyDmaChEnable(channelNum);
1706:Generated_Source\PSoC5/USBFS_1.c ****         }
1707:Generated_Source\PSoC5/USBFS_1.c ****         #else
1708:Generated_Source\PSoC5/USBFS_1.c ****             /* Configure DMA to transfer data. */
1709:Generated_Source\PSoC5/USBFS_1.c ****             (void) CyDmaChDisable(USBFS_1_DmaChan[epNumber]);
1710:Generated_Source\PSoC5/USBFS_1.c ****             (void) CyDmaTdSetConfiguration(USBFS_1_DmaTd[epNumber], length, CY_DMA_DISABLE_TD, TD_T
1711:Generated_Source\PSoC5/USBFS_1.c ****             (void) CyDmaTdSetAddress(USBFS_1_DmaTd[epNumber], LO16((uint32) &USBFS_1_ARB_EP_BASE.ar
1712:Generated_Source\PSoC5/USBFS_1.c **** 
1713:Generated_Source\PSoC5/USBFS_1.c ****             /* Enable DMA channel. */
1714:Generated_Source\PSoC5/USBFS_1.c ****             (void) CyDmaChSetInitialTd(USBFS_1_DmaChan[epNumber], USBFS_1_DmaTd[epNumber]);
1715:Generated_Source\PSoC5/USBFS_1.c ****             (void) CyDmaChEnable(USBFS_1_DmaChan[epNumber], 1u);
1716:Generated_Source\PSoC5/USBFS_1.c ****         #endif /* (CY_PSOC4) */
1717:Generated_Source\PSoC5/USBFS_1.c **** 
1718:Generated_Source\PSoC5/USBFS_1.c ****             /* Generate DMA request. */
1719:Generated_Source\PSoC5/USBFS_1.c ****             USBFS_1_ARB_EP_BASE.arbEp[epNumber].epCfg |=  (uint8)  USBFS_1_ARB_EPX_CFG_DMA_REQ;
1720:Generated_Source\PSoC5/USBFS_1.c ****             USBFS_1_ARB_EP_BASE.arbEp[epNumber].epCfg &=  (uint8) ~USBFS_1_ARB_EPX_CFG_DMA_REQ;
1721:Generated_Source\PSoC5/USBFS_1.c **** 
1722:Generated_Source\PSoC5/USBFS_1.c ****             /* OUT endpoint has to be armed again by user when DMA transfers have been completed.
1723:Generated_Source\PSoC5/USBFS_1.c ****             * NO_EVENT_PENDING: notifies that data has been copied from endpoint buffer.
1724:Generated_Source\PSoC5/USBFS_1.c ****             */
1725:Generated_Source\PSoC5/USBFS_1.c **** 
1726:Generated_Source\PSoC5/USBFS_1.c ****         #endif /* (USBFS_1_EP_MANAGEMENT_DMA_MANUAL) */
1727:Generated_Source\PSoC5/USBFS_1.c **** 
1728:Generated_Source\PSoC5/USBFS_1.c ****         #if (USBFS_1_EP_MANAGEMENT_DMA_AUTO)
1729:Generated_Source\PSoC5/USBFS_1.c ****         #if (CY_PSOC4)
1730:Generated_Source\PSoC5/USBFS_1.c ****         {
1731:Generated_Source\PSoC5/USBFS_1.c ****             uint32 channelNum = (uint32) USBFS_1_DmaChan[epNumber];
1732:Generated_Source\PSoC5/USBFS_1.c ****             uint32 lengthDescr0, lengthDescr1;
1733:Generated_Source\PSoC5/USBFS_1.c **** 
ARM GAS  C:\Users\Alex\AppData\Local\Temp\ccapzahD.s 			page 48


1734:Generated_Source\PSoC5/USBFS_1.c ****             /* Get number of full bursts. */
1735:Generated_Source\PSoC5/USBFS_1.c ****             USBFS_1_DmaEpBurstCnt[epNumber] = (uint8) (length / USBFS_1_DMA_BYTES_PER_BURST);
1736:Generated_Source\PSoC5/USBFS_1.c **** 
1737:Generated_Source\PSoC5/USBFS_1.c ****             /* Get number of elements in the last burst. */
1738:Generated_Source\PSoC5/USBFS_1.c ****             USBFS_1_DmaEpLastBurstEl[epNumber] = (uint8) (length % USBFS_1_DMA_BYTES_PER_BURST);
1739:Generated_Source\PSoC5/USBFS_1.c **** 
1740:Generated_Source\PSoC5/USBFS_1.c ****             /* Get total number of bursts. */
1741:Generated_Source\PSoC5/USBFS_1.c ****             USBFS_1_DmaEpBurstCnt[epNumber] += (0u != USBFS_1_DmaEpLastBurstEl[epNumber]) ? 1u : 0u
1742:Generated_Source\PSoC5/USBFS_1.c **** 
1743:Generated_Source\PSoC5/USBFS_1.c ****             /* Adjust number of the data elements transfered in last burst. */
1744:Generated_Source\PSoC5/USBFS_1.c ****             USBFS_1_DmaEpLastBurstEl[epNumber] = (0u != USBFS_1_DmaEpLastBurstEl[epNumber]) ?
1745:Generated_Source\PSoC5/USBFS_1.c ****                                                                   (USBFS_1_DmaEpLastBurstEl[epNumbe
1746:Generated_Source\PSoC5/USBFS_1.c ****                                                                   (USBFS_1_DMA_BYTES_PER_BURST - 1u
1747:Generated_Source\PSoC5/USBFS_1.c **** 
1748:Generated_Source\PSoC5/USBFS_1.c ****             /* Get number of data elements to transfer for descriptor 0 and 1. */
1749:Generated_Source\PSoC5/USBFS_1.c ****             lengthDescr0 = (1u == USBFS_1_DmaEpBurstCnt[epNumber]) ? USBFS_1_DmaEpLastBurstEl[epNum
1750:Generated_Source\PSoC5/USBFS_1.c ****             lengthDescr1 = (2u == USBFS_1_DmaEpBurstCnt[epNumber]) ? USBFS_1_DmaEpLastBurstEl[epNum
1751:Generated_Source\PSoC5/USBFS_1.c **** 
1752:Generated_Source\PSoC5/USBFS_1.c ****             /* Mark if revert number of data elements in descriptor after transfer completion. */
1753:Generated_Source\PSoC5/USBFS_1.c ****             USBFS_1_DmaEpLastBurstEl[epNumber] |= (USBFS_1_DmaEpBurstCnt[epNumber] > 2u) ? USBFS_1_
1754:Generated_Source\PSoC5/USBFS_1.c **** 
1755:Generated_Source\PSoC5/USBFS_1.c ****             /* Mark last descriptor to be executed. */
1756:Generated_Source\PSoC5/USBFS_1.c ****             USBFS_1_DmaEpLastBurstEl[epNumber] |= (0u != (USBFS_1_DmaEpBurstCnt[epNumber] & 0x1u)) 
1757:Generated_Source\PSoC5/USBFS_1.c ****                                                                     USBFS_1_DMA_DESCR0_MASK : USBFS
1758:Generated_Source\PSoC5/USBFS_1.c **** 
1759:Generated_Source\PSoC5/USBFS_1.c ****             /* Store address of buffer and burst counter for endpoint. */
1760:Generated_Source\PSoC5/USBFS_1.c ****             USBFS_1_DmaEpBufferAddrBackup[epNumber] = (uint32) pData;
1761:Generated_Source\PSoC5/USBFS_1.c ****             USBFS_1_DmaEpBurstCntBackup[epNumber]   = USBFS_1_DmaEpBurstCnt[epNumber];
1762:Generated_Source\PSoC5/USBFS_1.c **** 
1763:Generated_Source\PSoC5/USBFS_1.c ****             /* Adjust burst counter taking to account: 2 valid descriptors and interrupt trigger af
1764:Generated_Source\PSoC5/USBFS_1.c ****             USBFS_1_DmaEpBurstCnt[epNumber] = USBFS_1_DMA_GET_BURST_CNT(USBFS_1_DmaEpBurstCnt[epNum
1765:Generated_Source\PSoC5/USBFS_1.c **** 
1766:Generated_Source\PSoC5/USBFS_1.c ****             /* Disable DMA channel: start configuration. */
1767:Generated_Source\PSoC5/USBFS_1.c ****             USBFS_1_CyDmaChDisable(channelNum);
1768:Generated_Source\PSoC5/USBFS_1.c **** 
1769:Generated_Source\PSoC5/USBFS_1.c ****             /* Set destination address. */
1770:Generated_Source\PSoC5/USBFS_1.c ****             USBFS_1_CyDmaSetSrcAddress(channelNum, USBFS_1_DMA_DESCR0, (void*) &USBFS_1_ARB_EP_BASE
1771:Generated_Source\PSoC5/USBFS_1.c ****             USBFS_1_CyDmaSetSrcAddress(channelNum, USBFS_1_DMA_DESCR1, (void*) &USBFS_1_ARB_EP_BASE
1772:Generated_Source\PSoC5/USBFS_1.c **** 
1773:Generated_Source\PSoC5/USBFS_1.c ****             USBFS_1_CyDmaSetDstAddress(channelNum, USBFS_1_DMA_DESCR0, (void*) ((uint32) pData));
1774:Generated_Source\PSoC5/USBFS_1.c ****             USBFS_1_CyDmaSetDstAddress(channelNum, USBFS_1_DMA_DESCR1, (void*) ((uint32) pData + US
1775:Generated_Source\PSoC5/USBFS_1.c **** 
1776:Generated_Source\PSoC5/USBFS_1.c ****             /* Configure DMA descriptor. */
1777:Generated_Source\PSoC5/USBFS_1.c ****             USBFS_1_CyDmaSetConfiguration(channelNum, USBFS_1_DMA_DESCR0, USBFS_1_DMA_COMMON_CFG  |
1778:Generated_Source\PSoC5/USBFS_1.c ****                                                     CYDMA_BYTE | CYDMA_WORD_ELEMENT | CYDMA_INC_DST
1779:Generated_Source\PSoC5/USBFS_1.c **** 
1780:Generated_Source\PSoC5/USBFS_1.c ****             /* Configure DMA descriptor. */
1781:Generated_Source\PSoC5/USBFS_1.c ****             USBFS_1_CyDmaSetConfiguration(channelNum, USBFS_1_DMA_DESCR1, USBFS_1_DMA_COMMON_CFG  |
1782:Generated_Source\PSoC5/USBFS_1.c ****                                                     CYDMA_BYTE | CYDMA_WORD_ELEMENT | CYDMA_INC_DST
1783:Generated_Source\PSoC5/USBFS_1.c **** 
1784:Generated_Source\PSoC5/USBFS_1.c ****             /* Enable interrupt from DMA channel. */
1785:Generated_Source\PSoC5/USBFS_1.c ****             USBFS_1_CyDmaSetInterruptMask(channelNum);
1786:Generated_Source\PSoC5/USBFS_1.c **** 
1787:Generated_Source\PSoC5/USBFS_1.c ****             /* Validate DMA descriptor 0 and 1. */
1788:Generated_Source\PSoC5/USBFS_1.c ****             USBFS_1_CyDmaValidateDescriptor(channelNum, USBFS_1_DMA_DESCR0);
1789:Generated_Source\PSoC5/USBFS_1.c **** 
1790:Generated_Source\PSoC5/USBFS_1.c ****             if (USBFS_1_DmaEpBurstCntBackup[epNumber] > 1u)
ARM GAS  C:\Users\Alex\AppData\Local\Temp\ccapzahD.s 			page 49


1791:Generated_Source\PSoC5/USBFS_1.c ****             {
1792:Generated_Source\PSoC5/USBFS_1.c ****                 USBFS_1_CyDmaValidateDescriptor(channelNum, USBFS_1_DMA_DESCR1);
1793:Generated_Source\PSoC5/USBFS_1.c ****             }
1794:Generated_Source\PSoC5/USBFS_1.c **** 
1795:Generated_Source\PSoC5/USBFS_1.c ****             /* Enable DMA channel: configuration complete. */
1796:Generated_Source\PSoC5/USBFS_1.c ****             USBFS_1_CyDmaChEnable(channelNum);
1797:Generated_Source\PSoC5/USBFS_1.c ****         }
1798:Generated_Source\PSoC5/USBFS_1.c ****         #else
1799:Generated_Source\PSoC5/USBFS_1.c ****             (void) CyDmaChDisable(USBFS_1_DmaChan[epNumber]);
1800:Generated_Source\PSoC5/USBFS_1.c ****             (void) CyDmaTdSetConfiguration(USBFS_1_DmaTd[epNumber], length,  USBFS_1_DmaTd[epNumber
1801:Generated_Source\PSoC5/USBFS_1.c ****             (void) CyDmaTdSetAddress(USBFS_1_DmaTd[epNumber], LO16((uint32) &USBFS_1_ARB_EP_BASE.ar
1802:Generated_Source\PSoC5/USBFS_1.c **** 
1803:Generated_Source\PSoC5/USBFS_1.c ****             /* Clear Any potential pending DMA requests before starting DMA channel to transfer dat
1804:Generated_Source\PSoC5/USBFS_1.c ****             (void) CyDmaClearPendingDrq(USBFS_1_DmaChan[epNumber]);
1805:Generated_Source\PSoC5/USBFS_1.c **** 
1806:Generated_Source\PSoC5/USBFS_1.c ****             /* Enable DMA channel. */
1807:Generated_Source\PSoC5/USBFS_1.c ****             (void) CyDmaChSetInitialTd(USBFS_1_DmaChan[epNumber], USBFS_1_DmaTd[epNumber]);
1808:Generated_Source\PSoC5/USBFS_1.c ****             (void) CyDmaChEnable(USBFS_1_DmaChan[epNumber], 1u);
1809:Generated_Source\PSoC5/USBFS_1.c ****         #endif /* (CY_PSOC4) */
1810:Generated_Source\PSoC5/USBFS_1.c **** 
1811:Generated_Source\PSoC5/USBFS_1.c ****             /* OUT endpoint has to be armed again by user when DMA transfers have been completed.
1812:Generated_Source\PSoC5/USBFS_1.c ****             * NO_EVENT_PENDING: notifies that data has been copied from endpoint buffer.
1813:Generated_Source\PSoC5/USBFS_1.c ****             */
1814:Generated_Source\PSoC5/USBFS_1.c **** 
1815:Generated_Source\PSoC5/USBFS_1.c ****         #endif /* (USBFS_1_EP_MANAGEMENT_DMA_AUTO) */
1816:Generated_Source\PSoC5/USBFS_1.c ****     #endif /* (USBFS_1_EP_MANAGEMENT_MANUAL) */
1817:Generated_Source\PSoC5/USBFS_1.c ****     }
1818:Generated_Source\PSoC5/USBFS_1.c ****     else
1819:Generated_Source\PSoC5/USBFS_1.c ****     {
1820:Generated_Source\PSoC5/USBFS_1.c ****         length = 0u;
1821:Generated_Source\PSoC5/USBFS_1.c ****     }
1822:Generated_Source\PSoC5/USBFS_1.c **** 
1823:Generated_Source\PSoC5/USBFS_1.c ****     return (length);
1824:Generated_Source\PSoC5/USBFS_1.c **** }
1825:Generated_Source\PSoC5/USBFS_1.c **** 
1826:Generated_Source\PSoC5/USBFS_1.c **** 
1827:Generated_Source\PSoC5/USBFS_1.c **** #if (USBFS_1_16BITS_EP_ACCESS_ENABLE)
1828:Generated_Source\PSoC5/USBFS_1.c **** /*******************************************************************************
1829:Generated_Source\PSoC5/USBFS_1.c **** * Function Name: USBFS_1_LoadInEP16
1830:Generated_Source\PSoC5/USBFS_1.c **** ****************************************************************************//**
1831:Generated_Source\PSoC5/USBFS_1.c **** *
1832:Generated_Source\PSoC5/USBFS_1.c **** *  This function performs different functionality depending on the Component’s
1833:Generated_Source\PSoC5/USBFS_1.c **** *  configured Endpoint Buffer Management. This parameter is defined in
1834:Generated_Source\PSoC5/USBFS_1.c **** *  the Descriptor Root in Component Configure window.
1835:Generated_Source\PSoC5/USBFS_1.c **** *
1836:Generated_Source\PSoC5/USBFS_1.c **** *  *Manual (Static/Dynamic Allocation):*
1837:Generated_Source\PSoC5/USBFS_1.c **** *  This function loads and enables the specified USB data endpoint for an IN
1838:Generated_Source\PSoC5/USBFS_1.c **** *  data transfer.
1839:Generated_Source\PSoC5/USBFS_1.c **** *
1840:Generated_Source\PSoC5/USBFS_1.c **** *  *DMA with Manual Buffer Management:*
1841:Generated_Source\PSoC5/USBFS_1.c **** *  Configures DMA for a data transfer from system RAM to endpoint buffer.
1842:Generated_Source\PSoC5/USBFS_1.c **** *  Generates request for a transfer.
1843:Generated_Source\PSoC5/USBFS_1.c **** *
1844:Generated_Source\PSoC5/USBFS_1.c **** *  *DMA with Automatic Buffer Management:*
1845:Generated_Source\PSoC5/USBFS_1.c **** *  Configures DMA. This is required only once, so it is done only when parameter
1846:Generated_Source\PSoC5/USBFS_1.c **** *  pData is not NULL. When the pData pointer is NULL, the function skips this
1847:Generated_Source\PSoC5/USBFS_1.c **** *  task. Sets Data ready status: This generates the first DMA transfer and
ARM GAS  C:\Users\Alex\AppData\Local\Temp\ccapzahD.s 			page 50


1848:Generated_Source\PSoC5/USBFS_1.c **** *  prepares data in endpoint buffer.
1849:Generated_Source\PSoC5/USBFS_1.c **** *
1850:Generated_Source\PSoC5/USBFS_1.c **** *  \param epNumber Contains the data endpoint number.
1851:Generated_Source\PSoC5/USBFS_1.c **** *        Valid values are between 1 and 8.
1852:Generated_Source\PSoC5/USBFS_1.c **** *  \param *pData A pointer to a data array from which the data for the endpoint
1853:Generated_Source\PSoC5/USBFS_1.c **** *        space is loaded. It shall be ensured that this pointer address is even
1854:Generated_Source\PSoC5/USBFS_1.c **** *        to ensure the 16-bit transfer is aligned to even address. Else, a hard
1855:Generated_Source\PSoC5/USBFS_1.c **** *        fault condition can occur.
1856:Generated_Source\PSoC5/USBFS_1.c **** *  \param length The number of bytes to transfer from the array and then send as
1857:Generated_Source\PSoC5/USBFS_1.c **** *        a result of an IN request. Valid values are between 0 and 512 (1023 for
1858:Generated_Source\PSoC5/USBFS_1.c **** *        DMA with Automatic Buffer Management mode). The value 512 is applicable
1859:Generated_Source\PSoC5/USBFS_1.c **** *        if only one endpoint is used.
1860:Generated_Source\PSoC5/USBFS_1.c **** *
1861:Generated_Source\PSoC5/USBFS_1.c **** * \reentrant
1862:Generated_Source\PSoC5/USBFS_1.c **** *  No.
1863:Generated_Source\PSoC5/USBFS_1.c **** *
1864:Generated_Source\PSoC5/USBFS_1.c **** *******************************************************************************/
1865:Generated_Source\PSoC5/USBFS_1.c **** void USBFS_1_LoadInEP16(uint8 epNumber, const uint8 pData[], uint16 length)
1866:Generated_Source\PSoC5/USBFS_1.c **** {
1867:Generated_Source\PSoC5/USBFS_1.c ****     /* Check array alignment on half-word boundary. */
1868:Generated_Source\PSoC5/USBFS_1.c ****     CYASSERT(0u == (((uint32) pData) & 0x01u));
1869:Generated_Source\PSoC5/USBFS_1.c **** 
1870:Generated_Source\PSoC5/USBFS_1.c ****     if ((epNumber > USBFS_1_EP0) && (epNumber < USBFS_1_MAX_EP))
1871:Generated_Source\PSoC5/USBFS_1.c ****     {
1872:Generated_Source\PSoC5/USBFS_1.c ****     #if (!USBFS_1_EP_MANAGEMENT_DMA_AUTO)
1873:Generated_Source\PSoC5/USBFS_1.c ****         /* Limit length to available buffer USB IP buffer size. */
1874:Generated_Source\PSoC5/USBFS_1.c ****         if (length > (USBFS_1_EPX_DATA_BUF_MAX - USBFS_1_EP[epNumber].buffOffset))
1875:Generated_Source\PSoC5/USBFS_1.c ****         {
1876:Generated_Source\PSoC5/USBFS_1.c ****             length = USBFS_1_EPX_DATA_BUF_MAX - USBFS_1_EP[epNumber].buffOffset;
1877:Generated_Source\PSoC5/USBFS_1.c ****         }
1878:Generated_Source\PSoC5/USBFS_1.c ****     #endif /* (!USBFS_1_EP_MANAGEMENT_DMA_AUTO) */
1879:Generated_Source\PSoC5/USBFS_1.c **** 
1880:Generated_Source\PSoC5/USBFS_1.c ****         /* Set count and data toggle. */
1881:Generated_Source\PSoC5/USBFS_1.c ****         USBFS_1_SIE_EP_BASE.sieEp[epNumber].epCnt0 = (uint32) HI8(length) | USBFS_1_EP[epNumber].ep
1882:Generated_Source\PSoC5/USBFS_1.c ****         USBFS_1_SIE_EP_BASE.sieEp[epNumber].epCnt1 = (uint32) LO8(length);
1883:Generated_Source\PSoC5/USBFS_1.c **** 
1884:Generated_Source\PSoC5/USBFS_1.c ****         /* Adjust requested length: 2 bytes are handled at one data register access. */
1885:Generated_Source\PSoC5/USBFS_1.c ****         length += (length & 0x01u);
1886:Generated_Source\PSoC5/USBFS_1.c **** 
1887:Generated_Source\PSoC5/USBFS_1.c ****     #if (USBFS_1_EP_MANAGEMENT_MANUAL)
1888:Generated_Source\PSoC5/USBFS_1.c ****         if (NULL != pData)
1889:Generated_Source\PSoC5/USBFS_1.c ****         {
1890:Generated_Source\PSoC5/USBFS_1.c ****             /* Convert uint8 array to uint16. */
1891:Generated_Source\PSoC5/USBFS_1.c ****             const uint16 *dataBuf = (uint16 *) pData;
1892:Generated_Source\PSoC5/USBFS_1.c **** 
1893:Generated_Source\PSoC5/USBFS_1.c ****             /* Copy data using 16-bits arbiter data register. */
1894:Generated_Source\PSoC5/USBFS_1.c ****             uint16 i;
1895:Generated_Source\PSoC5/USBFS_1.c ****             for (i = 0u; i < (length >> 1u); ++i)
1896:Generated_Source\PSoC5/USBFS_1.c ****             {
1897:Generated_Source\PSoC5/USBFS_1.c ****                 USBFS_1_ARB_EP16_BASE.arbEp[epNumber].rwDr16 = dataBuf[i];
1898:Generated_Source\PSoC5/USBFS_1.c ****             }
1899:Generated_Source\PSoC5/USBFS_1.c ****         }
1900:Generated_Source\PSoC5/USBFS_1.c **** 
1901:Generated_Source\PSoC5/USBFS_1.c ****         /* IN endpoint buffer is full - read to be read. */
1902:Generated_Source\PSoC5/USBFS_1.c ****         USBFS_1_EP[epNumber].apiEpState = USBFS_1_NO_EVENT_PENDING;
1903:Generated_Source\PSoC5/USBFS_1.c **** 
1904:Generated_Source\PSoC5/USBFS_1.c ****         /* Arm IN endpoint. */
ARM GAS  C:\Users\Alex\AppData\Local\Temp\ccapzahD.s 			page 51


1905:Generated_Source\PSoC5/USBFS_1.c ****         USBFS_1_SIE_EP_BASE.sieEp[epNumber].epCr0 = USBFS_1_EP[epNumber].epMode;
1906:Generated_Source\PSoC5/USBFS_1.c **** 
1907:Generated_Source\PSoC5/USBFS_1.c ****     #else
1908:Generated_Source\PSoC5/USBFS_1.c **** 
1909:Generated_Source\PSoC5/USBFS_1.c ****         #if (USBFS_1_EP_MANAGEMENT_DMA_MANUAL)
1910:Generated_Source\PSoC5/USBFS_1.c ****             /* IN endpoint buffer will be fully loaded by DMA shortly. */
1911:Generated_Source\PSoC5/USBFS_1.c ****             USBFS_1_EP[epNumber].apiEpState = USBFS_1_NO_EVENT_PENDING;
1912:Generated_Source\PSoC5/USBFS_1.c **** 
1913:Generated_Source\PSoC5/USBFS_1.c ****             if ((pData != NULL) && (length > 0u))
1914:Generated_Source\PSoC5/USBFS_1.c ****             {
1915:Generated_Source\PSoC5/USBFS_1.c ****                 uint32 channelNum = (uint32) USBFS_1_DmaChan[epNumber];
1916:Generated_Source\PSoC5/USBFS_1.c **** 
1917:Generated_Source\PSoC5/USBFS_1.c ****                 /* Disable DMA channel: start configuration. */
1918:Generated_Source\PSoC5/USBFS_1.c ****                 USBFS_1_CyDmaChDisable(channelNum);
1919:Generated_Source\PSoC5/USBFS_1.c **** 
1920:Generated_Source\PSoC5/USBFS_1.c ****                 /* Configure source and destination. */
1921:Generated_Source\PSoC5/USBFS_1.c ****                 USBFS_1_CyDmaSetSrcAddress(channelNum, USBFS_1_DMA_DESCR0, (void*) pData);
1922:Generated_Source\PSoC5/USBFS_1.c ****                 USBFS_1_CyDmaSetDstAddress(channelNum, USBFS_1_DMA_DESCR0, (void*) &USBFS_1_ARB_EP1
1923:Generated_Source\PSoC5/USBFS_1.c **** 
1924:Generated_Source\PSoC5/USBFS_1.c ****                 /* Configure DMA descriptor. */
1925:Generated_Source\PSoC5/USBFS_1.c ****                 length = (length >> 1u) - 1u;
1926:Generated_Source\PSoC5/USBFS_1.c ****                 USBFS_1_CyDmaSetConfiguration(channelNum, USBFS_1_DMA_DESCR0, USBFS_1_DMA_COMMON_CF
1927:Generated_Source\PSoC5/USBFS_1.c ****                                                         CYDMA_HALFWORD | CYDMA_ELEMENT_WORD | CYDMA
1928:Generated_Source\PSoC5/USBFS_1.c **** 
1929:Generated_Source\PSoC5/USBFS_1.c ****                 /* Validate descriptor to execute on following DMA request. */
1930:Generated_Source\PSoC5/USBFS_1.c ****                 USBFS_1_CyDmaValidateDescriptor(channelNum, USBFS_1_DMA_DESCR0);
1931:Generated_Source\PSoC5/USBFS_1.c **** 
1932:Generated_Source\PSoC5/USBFS_1.c ****                 /* Enable DMA channel: configuration complete. */
1933:Generated_Source\PSoC5/USBFS_1.c ****                 USBFS_1_CyDmaChEnable(channelNum);
1934:Generated_Source\PSoC5/USBFS_1.c **** 
1935:Generated_Source\PSoC5/USBFS_1.c ****                 /* Generate DMA request. */
1936:Generated_Source\PSoC5/USBFS_1.c ****                 USBFS_1_ARB_EP_BASE.arbEp[epNumber].epCfg |=  (uint32)  USBFS_1_ARB_EPX_CFG_DMA_REQ
1937:Generated_Source\PSoC5/USBFS_1.c ****                 USBFS_1_ARB_EP_BASE.arbEp[epNumber].epCfg &=  (uint32) ~USBFS_1_ARB_EPX_CFG_DMA_REQ
1938:Generated_Source\PSoC5/USBFS_1.c **** 
1939:Generated_Source\PSoC5/USBFS_1.c ****                 /* IN endpoint will be armed in ARB_ISR(source: IN_BUF_FULL) after first DMA transf
1940:Generated_Source\PSoC5/USBFS_1.c ****             }
1941:Generated_Source\PSoC5/USBFS_1.c ****             else
1942:Generated_Source\PSoC5/USBFS_1.c ****             {
1943:Generated_Source\PSoC5/USBFS_1.c ****                 /* When zero-length packet: arm IN endpoint directly. */
1944:Generated_Source\PSoC5/USBFS_1.c ****                 USBFS_1_SIE_EP_BASE.sieEp[epNumber].epCr0 = USBFS_1_EP[epNumber].epMode;
1945:Generated_Source\PSoC5/USBFS_1.c ****             }
1946:Generated_Source\PSoC5/USBFS_1.c ****         #endif /* (USBFS_1_EP_MANAGEMENT_DMA_MANUAL) */
1947:Generated_Source\PSoC5/USBFS_1.c **** 
1948:Generated_Source\PSoC5/USBFS_1.c ****         #if (USBFS_1_EP_MANAGEMENT_DMA_AUTO)
1949:Generated_Source\PSoC5/USBFS_1.c ****             if (pData != NULL)
1950:Generated_Source\PSoC5/USBFS_1.c ****             {
1951:Generated_Source\PSoC5/USBFS_1.c ****                 uint32 channelNum = (uint32) USBFS_1_DmaChan[epNumber];
1952:Generated_Source\PSoC5/USBFS_1.c **** 
1953:Generated_Source\PSoC5/USBFS_1.c ****                 /* Store address of buffer. */
1954:Generated_Source\PSoC5/USBFS_1.c ****                 USBFS_1_DmaEpBufferAddrBackup[epNumber] = (uint32) pData;
1955:Generated_Source\PSoC5/USBFS_1.c **** 
1956:Generated_Source\PSoC5/USBFS_1.c ****                 /* Disable DMA channel: start configuration. */
1957:Generated_Source\PSoC5/USBFS_1.c ****                 USBFS_1_CyDmaChDisable(channelNum);
1958:Generated_Source\PSoC5/USBFS_1.c **** 
1959:Generated_Source\PSoC5/USBFS_1.c ****                 /* Set destination address. */
1960:Generated_Source\PSoC5/USBFS_1.c ****                 USBFS_1_CyDmaSetDstAddress(channelNum, USBFS_1_DMA_DESCR0, (void*) &USBFS_1_ARB_EP1
1961:Generated_Source\PSoC5/USBFS_1.c ****                 USBFS_1_CyDmaSetDstAddress(channelNum, USBFS_1_DMA_DESCR1, (void*) &USBFS_1_ARB_EP1
ARM GAS  C:\Users\Alex\AppData\Local\Temp\ccapzahD.s 			page 52


1962:Generated_Source\PSoC5/USBFS_1.c **** 
1963:Generated_Source\PSoC5/USBFS_1.c ****                 /* Configure DMA descriptor. */
1964:Generated_Source\PSoC5/USBFS_1.c ****                 USBFS_1_CyDmaSetConfiguration(channelNum, USBFS_1_DMA_DESCR0, USBFS_1_DMA_COMMON_CF
1965:Generated_Source\PSoC5/USBFS_1.c ****                                                         CYDMA_HALFWORD | CYDMA_ELEMENT_WORD | CYDMA
1966:Generated_Source\PSoC5/USBFS_1.c **** 
1967:Generated_Source\PSoC5/USBFS_1.c ****                 /* Configure DMA descriptor. */
1968:Generated_Source\PSoC5/USBFS_1.c ****                 USBFS_1_CyDmaSetConfiguration(channelNum, USBFS_1_DMA_DESCR1, USBFS_1_DMA_COMMON_CF
1969:Generated_Source\PSoC5/USBFS_1.c ****                                                         CYDMA_HALFWORD | CYDMA_ELEMENT_WORD | CYDMA
1970:Generated_Source\PSoC5/USBFS_1.c **** 
1971:Generated_Source\PSoC5/USBFS_1.c ****                 /* Enable interrupt from DMA channel. */
1972:Generated_Source\PSoC5/USBFS_1.c ****                 USBFS_1_CyDmaSetInterruptMask(channelNum);
1973:Generated_Source\PSoC5/USBFS_1.c **** 
1974:Generated_Source\PSoC5/USBFS_1.c ****                 /* Enable DMA channel: configuration complete. */
1975:Generated_Source\PSoC5/USBFS_1.c ****                 USBFS_1_CyDmaChEnable(channelNum);
1976:Generated_Source\PSoC5/USBFS_1.c ****             }
1977:Generated_Source\PSoC5/USBFS_1.c ****             else
1978:Generated_Source\PSoC5/USBFS_1.c ****             {
1979:Generated_Source\PSoC5/USBFS_1.c ****                 /* IN endpoint buffer (32 bytes) will shortly be preloaded by DMA. */
1980:Generated_Source\PSoC5/USBFS_1.c ****                 USBFS_1_EP[epNumber].apiEpState = USBFS_1_NO_EVENT_PENDING;
1981:Generated_Source\PSoC5/USBFS_1.c **** 
1982:Generated_Source\PSoC5/USBFS_1.c ****                 if (length > 0u)
1983:Generated_Source\PSoC5/USBFS_1.c ****                 {
1984:Generated_Source\PSoC5/USBFS_1.c ****                     uint32 lengthDescr0, lengthDescr1;
1985:Generated_Source\PSoC5/USBFS_1.c ****                     uint32 channelNum = (uint32) USBFS_1_DmaChan[epNumber];
1986:Generated_Source\PSoC5/USBFS_1.c **** 
1987:Generated_Source\PSoC5/USBFS_1.c ****                     /* Get number of full bursts. */
1988:Generated_Source\PSoC5/USBFS_1.c ****                     USBFS_1_DmaEpBurstCnt[epNumber] = (uint8) (length / USBFS_1_DMA_BYTES_PER_BURST
1989:Generated_Source\PSoC5/USBFS_1.c **** 
1990:Generated_Source\PSoC5/USBFS_1.c ****                     /* Get number of elements in the last burst. */
1991:Generated_Source\PSoC5/USBFS_1.c ****                     USBFS_1_DmaEpLastBurstEl[epNumber] = (uint8) (length % USBFS_1_DMA_BYTES_PER_BU
1992:Generated_Source\PSoC5/USBFS_1.c **** 
1993:Generated_Source\PSoC5/USBFS_1.c ****                     /* Get total number of bursts. */
1994:Generated_Source\PSoC5/USBFS_1.c ****                     USBFS_1_DmaEpBurstCnt[epNumber] += (0u != USBFS_1_DmaEpLastBurstEl[epNumber]) ?
1995:Generated_Source\PSoC5/USBFS_1.c **** 
1996:Generated_Source\PSoC5/USBFS_1.c ****                     /* Adjust number of data elements transferred in last burst. */
1997:Generated_Source\PSoC5/USBFS_1.c ****                     USBFS_1_DmaEpLastBurstEl[epNumber] = (0u != USBFS_1_DmaEpLastBurstEl[epNumber])
1998:Generated_Source\PSoC5/USBFS_1.c ****                                                                           ((USBFS_1_DmaEpLastBurstE
1999:Generated_Source\PSoC5/USBFS_1.c ****                                                                            (USBFS_1_DMA_HALFWORDS_P
2000:Generated_Source\PSoC5/USBFS_1.c **** 
2001:Generated_Source\PSoC5/USBFS_1.c ****                     /* Get number of data elements to transfer for descriptor 0 and 1. */
2002:Generated_Source\PSoC5/USBFS_1.c ****                     lengthDescr0 = (1u == USBFS_1_DmaEpBurstCnt[epNumber]) ? USBFS_1_DmaEpLastBurst
2003:Generated_Source\PSoC5/USBFS_1.c ****                     lengthDescr1 = (2u == USBFS_1_DmaEpBurstCnt[epNumber]) ? USBFS_1_DmaEpLastBurst
2004:Generated_Source\PSoC5/USBFS_1.c **** 
2005:Generated_Source\PSoC5/USBFS_1.c ****                     /* Mark which descriptor is last one to execute. */
2006:Generated_Source\PSoC5/USBFS_1.c ****                     USBFS_1_DmaEpLastBurstEl[epNumber] |= (0u != (USBFS_1_DmaEpBurstCnt[epNumber] &
2007:Generated_Source\PSoC5/USBFS_1.c ****                                                                             USBFS_1_DMA_DESCR0_MASK
2008:Generated_Source\PSoC5/USBFS_1.c **** 
2009:Generated_Source\PSoC5/USBFS_1.c ****                     /* Restore DMA settings for current transfer. */
2010:Generated_Source\PSoC5/USBFS_1.c ****                     USBFS_1_CyDmaChDisable(channelNum);
2011:Generated_Source\PSoC5/USBFS_1.c **** 
2012:Generated_Source\PSoC5/USBFS_1.c ****                     /* Restore destination address for input endpoint. */
2013:Generated_Source\PSoC5/USBFS_1.c ****                     USBFS_1_CyDmaSetSrcAddress(channelNum, USBFS_1_DMA_DESCR0, (void*) ((uint32) US
2014:Generated_Source\PSoC5/USBFS_1.c ****                     USBFS_1_CyDmaSetSrcAddress(channelNum, USBFS_1_DMA_DESCR1, (void*) ((uint32) US
2015:Generated_Source\PSoC5/USBFS_1.c ****                                                                                                    
2016:Generated_Source\PSoC5/USBFS_1.c **** 
2017:Generated_Source\PSoC5/USBFS_1.c ****                     /* Set number of elements to transfer. */
2018:Generated_Source\PSoC5/USBFS_1.c ****                     USBFS_1_CyDmaSetNumDataElements(channelNum, USBFS_1_DMA_DESCR0, lengthDescr0);
ARM GAS  C:\Users\Alex\AppData\Local\Temp\ccapzahD.s 			page 53


2019:Generated_Source\PSoC5/USBFS_1.c ****                     USBFS_1_CyDmaSetNumDataElements(channelNum, USBFS_1_DMA_DESCR1, lengthDescr1);
2020:Generated_Source\PSoC5/USBFS_1.c **** 
2021:Generated_Source\PSoC5/USBFS_1.c ****                     /* Validate descriptor 0 and command to start with it. */
2022:Generated_Source\PSoC5/USBFS_1.c ****                     USBFS_1_CyDmaValidateDescriptor(channelNum, USBFS_1_DMA_DESCR0);
2023:Generated_Source\PSoC5/USBFS_1.c ****                     USBFS_1_CyDmaSetDescriptor0Next(channelNum);
2024:Generated_Source\PSoC5/USBFS_1.c **** 
2025:Generated_Source\PSoC5/USBFS_1.c ****                     /* Validate descriptor 1. */
2026:Generated_Source\PSoC5/USBFS_1.c ****                     if (USBFS_1_DmaEpBurstCnt[epNumber] > 1u)
2027:Generated_Source\PSoC5/USBFS_1.c ****                     {
2028:Generated_Source\PSoC5/USBFS_1.c ****                         USBFS_1_CyDmaValidateDescriptor(channelNum, USBFS_1_DMA_DESCR1);
2029:Generated_Source\PSoC5/USBFS_1.c ****                     }
2030:Generated_Source\PSoC5/USBFS_1.c **** 
2031:Generated_Source\PSoC5/USBFS_1.c ****                     /* Adjust burst counter taking to account: 2 valid descriptors and interrupt tr
2032:Generated_Source\PSoC5/USBFS_1.c ****                     USBFS_1_DmaEpBurstCnt[epNumber] = USBFS_1_DMA_GET_BURST_CNT(USBFS_1_DmaEpBurstC
2033:Generated_Source\PSoC5/USBFS_1.c **** 
2034:Generated_Source\PSoC5/USBFS_1.c ****                     /* Enable DMA channel: configuration complete. */
2035:Generated_Source\PSoC5/USBFS_1.c ****                     USBFS_1_CyDmaChEnable(channelNum);
2036:Generated_Source\PSoC5/USBFS_1.c **** 
2037:Generated_Source\PSoC5/USBFS_1.c ****                 #if !defined (USBFS_1_MANUAL_IN_EP_ARM)
2038:Generated_Source\PSoC5/USBFS_1.c ****                     /* Set IN data ready to generate DMA request to load data into endpoint buffer.
2039:Generated_Source\PSoC5/USBFS_1.c ****                     USBFS_1_ARB_EP_BASE.arbEp[epNumber].epCfg |= USBFS_1_ARB_EPX_CFG_IN_DATA_RDY;
2040:Generated_Source\PSoC5/USBFS_1.c ****                 #endif  /* (USBFS_1_MANUAL_IN_EP_ARM) */
2041:Generated_Source\PSoC5/USBFS_1.c **** 
2042:Generated_Source\PSoC5/USBFS_1.c ****                     /* IN endpoint will be armed in ARB_ISR(source: IN_BUF_FULL) after first DMA tr
2043:Generated_Source\PSoC5/USBFS_1.c ****                 }
2044:Generated_Source\PSoC5/USBFS_1.c ****                 else
2045:Generated_Source\PSoC5/USBFS_1.c ****                 {
2046:Generated_Source\PSoC5/USBFS_1.c ****                     /* When zero-length packet: arm IN endpoint directly. */
2047:Generated_Source\PSoC5/USBFS_1.c ****                     USBFS_1_SIE_EP_BASE.sieEp[epNumber].epCr0 = USBFS_1_EP[epNumber].epMode;
2048:Generated_Source\PSoC5/USBFS_1.c ****                 }
2049:Generated_Source\PSoC5/USBFS_1.c ****             }
2050:Generated_Source\PSoC5/USBFS_1.c ****         #endif /* (USBFS_1_EP_MANAGEMENT_DMA_AUTO) */
2051:Generated_Source\PSoC5/USBFS_1.c ****     #endif /* (USBFS_1_EP_MANAGEMENT_MANUAL) */
2052:Generated_Source\PSoC5/USBFS_1.c ****     }
2053:Generated_Source\PSoC5/USBFS_1.c **** }
2054:Generated_Source\PSoC5/USBFS_1.c **** 
2055:Generated_Source\PSoC5/USBFS_1.c **** 
2056:Generated_Source\PSoC5/USBFS_1.c **** /*******************************************************************************
2057:Generated_Source\PSoC5/USBFS_1.c **** * Function Name: USBFS_1_ReadOutEP16
2058:Generated_Source\PSoC5/USBFS_1.c **** ****************************************************************************//**
2059:Generated_Source\PSoC5/USBFS_1.c **** *
2060:Generated_Source\PSoC5/USBFS_1.c **** *   This function performs different functionality depending on the Component’s
2061:Generated_Source\PSoC5/USBFS_1.c **** *   configured Endpoint Buffer Management. This parameter is defined in the
2062:Generated_Source\PSoC5/USBFS_1.c **** *   Descriptor Root in Component Configure window.
2063:Generated_Source\PSoC5/USBFS_1.c **** *
2064:Generated_Source\PSoC5/USBFS_1.c **** *   *Manual (Static/Dynamic Allocation):*
2065:Generated_Source\PSoC5/USBFS_1.c **** *   This function moves the specified number of bytes from endpoint buffer to
2066:Generated_Source\PSoC5/USBFS_1.c **** *   system RAM. The number of bytes actually transferred from endpoint buffer to
2067:Generated_Source\PSoC5/USBFS_1.c **** *   system RAM is the lesser of the actual number of bytes sent by the host or
2068:Generated_Source\PSoC5/USBFS_1.c **** *   the number of bytes requested by the length parameter.
2069:Generated_Source\PSoC5/USBFS_1.c **** *
2070:Generated_Source\PSoC5/USBFS_1.c **** *   *DMA with Manual Buffer Management:*
2071:Generated_Source\PSoC5/USBFS_1.c **** *   Configure DMA to transfer data from endpoint buffer to system RAM. Generate
2072:Generated_Source\PSoC5/USBFS_1.c **** *   a DMA request. The firmware must wait until the DMA completes the data
2073:Generated_Source\PSoC5/USBFS_1.c **** *   transfer after calling the USBFS_1_ReadOutEP() API. For example,
2074:Generated_Source\PSoC5/USBFS_1.c **** *   by checking EPstate:
2075:Generated_Source\PSoC5/USBFS_1.c **** *
ARM GAS  C:\Users\Alex\AppData\Local\Temp\ccapzahD.s 			page 54


2076:Generated_Source\PSoC5/USBFS_1.c **** *   \snippet /USBFS_sut_02.cydsn/main.c checking EPstatey
2077:Generated_Source\PSoC5/USBFS_1.c **** *
2078:Generated_Source\PSoC5/USBFS_1.c **** *   The USBFS_EnableOutEP() has to be called to allow host to write data into
2079:Generated_Source\PSoC5/USBFS_1.c **** *   the endpoint buffer after DMA has completed transfer data from OUT endpoint
2080:Generated_Source\PSoC5/USBFS_1.c **** *   buffer to SRAM.
2081:Generated_Source\PSoC5/USBFS_1.c **** *
2082:Generated_Source\PSoC5/USBFS_1.c **** *   *DMA with Automatic Buffer Management:*
2083:Generated_Source\PSoC5/USBFS_1.c **** *   Configure DMA. This is required only once and automatically generates DMA
2084:Generated_Source\PSoC5/USBFS_1.c **** *   requests as data arrives
2085:Generated_Source\PSoC5/USBFS_1.c **** *
2086:Generated_Source\PSoC5/USBFS_1.c **** *  \param epNumber: Contains the data endpoint number.
2087:Generated_Source\PSoC5/USBFS_1.c **** *         Valid values are between 1 and 8.
2088:Generated_Source\PSoC5/USBFS_1.c **** *  \param pData: A pointer to a data array into which the data for the endpoint
2089:Generated_Source\PSoC5/USBFS_1.c **** *         space is copied. It shall be ensured that this pointer address is
2090:Generated_Source\PSoC5/USBFS_1.c **** *         even to ensure the 16-bit transfer is aligned to even address. Else,
2091:Generated_Source\PSoC5/USBFS_1.c **** *         a hard fault condition can occur.
2092:Generated_Source\PSoC5/USBFS_1.c **** *  \param length: The number of bytes to transfer from the USB Out endpoint and
2093:Generated_Source\PSoC5/USBFS_1.c **** *         loads it into data array. Valid values are between 0 and 1023. The
2094:Generated_Source\PSoC5/USBFS_1.c **** *         function moves fewer than the requested number of bytes if the host
2095:Generated_Source\PSoC5/USBFS_1.c **** *         sends fewer bytes than requested.
2096:Generated_Source\PSoC5/USBFS_1.c **** *
2097:Generated_Source\PSoC5/USBFS_1.c **** * \return
2098:Generated_Source\PSoC5/USBFS_1.c **** *  Number of bytes received, 0 for an invalid endpoint.
2099:Generated_Source\PSoC5/USBFS_1.c **** *
2100:Generated_Source\PSoC5/USBFS_1.c **** * \reentrant
2101:Generated_Source\PSoC5/USBFS_1.c **** *  No.
2102:Generated_Source\PSoC5/USBFS_1.c **** *
2103:Generated_Source\PSoC5/USBFS_1.c **** *******************************************************************************/
2104:Generated_Source\PSoC5/USBFS_1.c **** uint16 USBFS_1_ReadOutEP16(uint8 epNumber, uint8 pData[], uint16 length)
2105:Generated_Source\PSoC5/USBFS_1.c **** {
2106:Generated_Source\PSoC5/USBFS_1.c ****     uint32 adjLength;
2107:Generated_Source\PSoC5/USBFS_1.c **** 
2108:Generated_Source\PSoC5/USBFS_1.c ****     /* Check array alignment on half-word boundary */
2109:Generated_Source\PSoC5/USBFS_1.c ****     CYASSERT(0u == (((uint32) pData) & 0x01u));
2110:Generated_Source\PSoC5/USBFS_1.c **** 
2111:Generated_Source\PSoC5/USBFS_1.c ****     if ((pData != NULL) && (epNumber > USBFS_1_EP0) && (epNumber < USBFS_1_MAX_EP))
2112:Generated_Source\PSoC5/USBFS_1.c ****     {
2113:Generated_Source\PSoC5/USBFS_1.c ****     #if (!USBFS_1_EP_MANAGEMENT_DMA_AUTO)
2114:Generated_Source\PSoC5/USBFS_1.c ****         /* Adjust requested length to available data. */
2115:Generated_Source\PSoC5/USBFS_1.c ****         length = (length > USBFS_1_GetEPCount(epNumber)) ? USBFS_1_GetEPCount(epNumber) : length;
2116:Generated_Source\PSoC5/USBFS_1.c ****     #endif /* (!USBFS_1_EP_MANAGEMENT_DMA_AUTO) */
2117:Generated_Source\PSoC5/USBFS_1.c **** 
2118:Generated_Source\PSoC5/USBFS_1.c ****     /* Adjust requested length: 2 bytes are handled at one data register access. */
2119:Generated_Source\PSoC5/USBFS_1.c ****     adjLength =  length + ((uint32)length & 1u);
2120:Generated_Source\PSoC5/USBFS_1.c **** 
2121:Generated_Source\PSoC5/USBFS_1.c ****     #if (USBFS_1_EP_MANAGEMENT_MANUAL)
2122:Generated_Source\PSoC5/USBFS_1.c ****         {
2123:Generated_Source\PSoC5/USBFS_1.c ****             /* Convert uint8 array to uint16. */
2124:Generated_Source\PSoC5/USBFS_1.c ****             uint16 *dataBuf = (uint16 *) pData;
2125:Generated_Source\PSoC5/USBFS_1.c **** 
2126:Generated_Source\PSoC5/USBFS_1.c ****             /* Copy data using 16-bits arbiter data register. */
2127:Generated_Source\PSoC5/USBFS_1.c ****             uint16 i;
2128:Generated_Source\PSoC5/USBFS_1.c ****             for (i = 0u; i < (adjLength >> 1u); ++i)
2129:Generated_Source\PSoC5/USBFS_1.c ****             {
2130:Generated_Source\PSoC5/USBFS_1.c ****                 dataBuf[i] = (uint16) USBFS_1_ARB_EP16_BASE.arbEp[epNumber].rwDr16;
2131:Generated_Source\PSoC5/USBFS_1.c ****             }
2132:Generated_Source\PSoC5/USBFS_1.c ****         }
ARM GAS  C:\Users\Alex\AppData\Local\Temp\ccapzahD.s 			page 55


2133:Generated_Source\PSoC5/USBFS_1.c **** 
2134:Generated_Source\PSoC5/USBFS_1.c ****         /* Arm OUT endpoint after data has been read from endpoint buffer. */
2135:Generated_Source\PSoC5/USBFS_1.c ****         USBFS_1_EnableOutEP(epNumber);
2136:Generated_Source\PSoC5/USBFS_1.c ****     #else
2137:Generated_Source\PSoC5/USBFS_1.c **** 
2138:Generated_Source\PSoC5/USBFS_1.c ****         #if (USBFS_1_EP_MANAGEMENT_DMA_MANUAL)
2139:Generated_Source\PSoC5/USBFS_1.c ****         {
2140:Generated_Source\PSoC5/USBFS_1.c ****             uint32 channelNum = (uint32) USBFS_1_DmaChan[epNumber];
2141:Generated_Source\PSoC5/USBFS_1.c **** 
2142:Generated_Source\PSoC5/USBFS_1.c ****             /* Disable DMA channel: start configuration. */
2143:Generated_Source\PSoC5/USBFS_1.c ****             USBFS_1_CyDmaChDisable(channelNum);
2144:Generated_Source\PSoC5/USBFS_1.c **** 
2145:Generated_Source\PSoC5/USBFS_1.c ****             /* Configure source and destination. */
2146:Generated_Source\PSoC5/USBFS_1.c ****             USBFS_1_CyDmaSetSrcAddress(channelNum, USBFS_1_DMA_DESCR0, (void*) &USBFS_1_ARB_EP16_BA
2147:Generated_Source\PSoC5/USBFS_1.c ****             USBFS_1_CyDmaSetDstAddress(channelNum, USBFS_1_DMA_DESCR0, (void*) pData);
2148:Generated_Source\PSoC5/USBFS_1.c **** 
2149:Generated_Source\PSoC5/USBFS_1.c ****             /* Configure DMA descriptor. */
2150:Generated_Source\PSoC5/USBFS_1.c ****             USBFS_1_CyDmaSetConfiguration(channelNum, USBFS_1_DMA_DESCR0, USBFS_1_DMA_COMMON_CFG | 
2151:Generated_Source\PSoC5/USBFS_1.c ****                                                     CYDMA_HALFWORD | CYDMA_WORD_ELEMENT | CYDMA_INC
2152:Generated_Source\PSoC5/USBFS_1.c **** 
2153:Generated_Source\PSoC5/USBFS_1.c ****             /* Validate descriptor to execute on following DMA request. */
2154:Generated_Source\PSoC5/USBFS_1.c ****             USBFS_1_CyDmaValidateDescriptor(channelNum, USBFS_1_DMA_DESCR0);
2155:Generated_Source\PSoC5/USBFS_1.c **** 
2156:Generated_Source\PSoC5/USBFS_1.c ****             /* Enable DMA channel: configuration complete. */
2157:Generated_Source\PSoC5/USBFS_1.c ****             USBFS_1_CyDmaChEnable(channelNum);
2158:Generated_Source\PSoC5/USBFS_1.c **** 
2159:Generated_Source\PSoC5/USBFS_1.c ****             /* Generate DMA request. */
2160:Generated_Source\PSoC5/USBFS_1.c ****             USBFS_1_ARB_EP_BASE.arbEp[epNumber].epCfg |=  (uint32)  USBFS_1_ARB_EPX_CFG_DMA_REQ;
2161:Generated_Source\PSoC5/USBFS_1.c ****             USBFS_1_ARB_EP_BASE.arbEp[epNumber].epCfg &=  (uint32) ~USBFS_1_ARB_EPX_CFG_DMA_REQ;
2162:Generated_Source\PSoC5/USBFS_1.c **** 
2163:Generated_Source\PSoC5/USBFS_1.c ****             /* OUT endpoint has to be armed again by user when DMA transfers have been completed.
2164:Generated_Source\PSoC5/USBFS_1.c ****             * NO_EVENT_PENDING: notifies that data has been copied from endpoint buffer.
2165:Generated_Source\PSoC5/USBFS_1.c ****             */
2166:Generated_Source\PSoC5/USBFS_1.c ****         }
2167:Generated_Source\PSoC5/USBFS_1.c ****         #endif /* (USBFS_1_EP_MANAGEMENT_DMA_MANUAL) */
2168:Generated_Source\PSoC5/USBFS_1.c **** 
2169:Generated_Source\PSoC5/USBFS_1.c ****         #if (USBFS_1_EP_MANAGEMENT_DMA_AUTO)
2170:Generated_Source\PSoC5/USBFS_1.c ****         {
2171:Generated_Source\PSoC5/USBFS_1.c ****             uint32 lengthDescr0, lengthDescr1;
2172:Generated_Source\PSoC5/USBFS_1.c ****             uint32 channelNum = (uint32) USBFS_1_DmaChan[epNumber];
2173:Generated_Source\PSoC5/USBFS_1.c **** 
2174:Generated_Source\PSoC5/USBFS_1.c ****             /* Get number of full bursts. */
2175:Generated_Source\PSoC5/USBFS_1.c ****             USBFS_1_DmaEpBurstCnt[epNumber] = (uint8) (adjLength / USBFS_1_DMA_BYTES_PER_BURST);
2176:Generated_Source\PSoC5/USBFS_1.c **** 
2177:Generated_Source\PSoC5/USBFS_1.c ****             /* Get number of elements in last burst. */
2178:Generated_Source\PSoC5/USBFS_1.c ****             USBFS_1_DmaEpLastBurstEl[epNumber] = (uint8) (adjLength % USBFS_1_DMA_BYTES_PER_BURST);
2179:Generated_Source\PSoC5/USBFS_1.c **** 
2180:Generated_Source\PSoC5/USBFS_1.c ****             /* Get total number of bursts. */
2181:Generated_Source\PSoC5/USBFS_1.c ****             USBFS_1_DmaEpBurstCnt[epNumber] += (0u != USBFS_1_DmaEpLastBurstEl[epNumber]) ? 1u : 0u
2182:Generated_Source\PSoC5/USBFS_1.c **** 
2183:Generated_Source\PSoC5/USBFS_1.c ****             /* Adjust number of data elements transferred in last burst. */
2184:Generated_Source\PSoC5/USBFS_1.c ****             USBFS_1_DmaEpLastBurstEl[epNumber] = (0u != USBFS_1_DmaEpLastBurstEl[epNumber]) ?
2185:Generated_Source\PSoC5/USBFS_1.c ****                                                                   ((USBFS_1_DmaEpLastBurstEl[epNumb
2186:Generated_Source\PSoC5/USBFS_1.c ****                                                                    (USBFS_1_DMA_HALFWORDS_PER_BURST
2187:Generated_Source\PSoC5/USBFS_1.c **** 
2188:Generated_Source\PSoC5/USBFS_1.c ****             /* Get number of data elements to transfer for descriptor 0 and 1. */
2189:Generated_Source\PSoC5/USBFS_1.c ****             lengthDescr0 = (1u == USBFS_1_DmaEpBurstCnt[epNumber]) ? USBFS_1_DmaEpLastBurstEl[epNum
ARM GAS  C:\Users\Alex\AppData\Local\Temp\ccapzahD.s 			page 56


2190:Generated_Source\PSoC5/USBFS_1.c ****             lengthDescr1 = (2u == USBFS_1_DmaEpBurstCnt[epNumber]) ? USBFS_1_DmaEpLastBurstEl[epNum
2191:Generated_Source\PSoC5/USBFS_1.c **** 
2192:Generated_Source\PSoC5/USBFS_1.c ****             /* Mark last descriptor to be executed. */
2193:Generated_Source\PSoC5/USBFS_1.c ****             USBFS_1_DmaEpLastBurstEl[epNumber] |= (0u != (USBFS_1_DmaEpBurstCnt[epNumber] & 0x1u)) 
2194:Generated_Source\PSoC5/USBFS_1.c ****                                                                     USBFS_1_DMA_DESCR0_MASK : USBFS
2195:Generated_Source\PSoC5/USBFS_1.c **** 
2196:Generated_Source\PSoC5/USBFS_1.c ****             /* Mark if revert number of data elements in descriptor after transfer completion. */
2197:Generated_Source\PSoC5/USBFS_1.c ****             USBFS_1_DmaEpLastBurstEl[epNumber] |= (USBFS_1_DmaEpBurstCnt[epNumber] > 2u) ? USBFS_1_
2198:Generated_Source\PSoC5/USBFS_1.c **** 
2199:Generated_Source\PSoC5/USBFS_1.c ****             /* Mark that 16-bits access to data register is performed. */
2200:Generated_Source\PSoC5/USBFS_1.c ****             USBFS_1_DmaEpLastBurstEl[epNumber] |= USBFS_1_DMA_DESCR_16BITS;
2201:Generated_Source\PSoC5/USBFS_1.c **** 
2202:Generated_Source\PSoC5/USBFS_1.c ****             /* Store address of buffer and burst counter for endpoint. */
2203:Generated_Source\PSoC5/USBFS_1.c ****             USBFS_1_DmaEpBufferAddrBackup[epNumber] = (uint32) pData;
2204:Generated_Source\PSoC5/USBFS_1.c ****             USBFS_1_DmaEpBurstCntBackup[epNumber]   = USBFS_1_DmaEpBurstCnt[epNumber];
2205:Generated_Source\PSoC5/USBFS_1.c **** 
2206:Generated_Source\PSoC5/USBFS_1.c ****             /* Adjust burst counter taking to account: 2 valid descriptors and interrupt trigger af
2207:Generated_Source\PSoC5/USBFS_1.c ****             USBFS_1_DmaEpBurstCnt[epNumber] = USBFS_1_DMA_GET_BURST_CNT(USBFS_1_DmaEpBurstCnt[epNum
2208:Generated_Source\PSoC5/USBFS_1.c **** 
2209:Generated_Source\PSoC5/USBFS_1.c ****             /* Disable DMA channel: start configuration. */
2210:Generated_Source\PSoC5/USBFS_1.c ****             USBFS_1_CyDmaChDisable(channelNum);
2211:Generated_Source\PSoC5/USBFS_1.c **** 
2212:Generated_Source\PSoC5/USBFS_1.c ****             /* Set destination address. */
2213:Generated_Source\PSoC5/USBFS_1.c ****             USBFS_1_CyDmaSetSrcAddress(channelNum, USBFS_1_DMA_DESCR0, (void*) &USBFS_1_ARB_EP16_BA
2214:Generated_Source\PSoC5/USBFS_1.c ****             USBFS_1_CyDmaSetSrcAddress(channelNum, USBFS_1_DMA_DESCR1, (void*) &USBFS_1_ARB_EP16_BA
2215:Generated_Source\PSoC5/USBFS_1.c **** 
2216:Generated_Source\PSoC5/USBFS_1.c ****             USBFS_1_CyDmaSetDstAddress(channelNum, USBFS_1_DMA_DESCR0, (void*) ((uint32) pData));
2217:Generated_Source\PSoC5/USBFS_1.c ****             USBFS_1_CyDmaSetDstAddress(channelNum, USBFS_1_DMA_DESCR1, (void*) ((uint32) pData + US
2218:Generated_Source\PSoC5/USBFS_1.c **** 
2219:Generated_Source\PSoC5/USBFS_1.c ****             /* Configure DMA descriptor 0. */
2220:Generated_Source\PSoC5/USBFS_1.c ****             USBFS_1_CyDmaSetConfiguration(channelNum, USBFS_1_DMA_DESCR0, USBFS_1_DMA_COMMON_CFG  |
2221:Generated_Source\PSoC5/USBFS_1.c ****                                                     CYDMA_HALFWORD | CYDMA_WORD_ELEMENT | CYDMA_INC
2222:Generated_Source\PSoC5/USBFS_1.c **** 
2223:Generated_Source\PSoC5/USBFS_1.c ****             /* Configure DMA descriptor 1. */
2224:Generated_Source\PSoC5/USBFS_1.c ****             USBFS_1_CyDmaSetConfiguration(channelNum, USBFS_1_DMA_DESCR1, USBFS_1_DMA_COMMON_CFG  |
2225:Generated_Source\PSoC5/USBFS_1.c ****                                                     CYDMA_HALFWORD | CYDMA_WORD_ELEMENT | CYDMA_INC
2226:Generated_Source\PSoC5/USBFS_1.c **** 
2227:Generated_Source\PSoC5/USBFS_1.c ****             /* Enable interrupt from DMA channel. */
2228:Generated_Source\PSoC5/USBFS_1.c ****             USBFS_1_CyDmaSetInterruptMask(channelNum);
2229:Generated_Source\PSoC5/USBFS_1.c **** 
2230:Generated_Source\PSoC5/USBFS_1.c ****             /* Validate DMA descriptor 0 and 1. */
2231:Generated_Source\PSoC5/USBFS_1.c ****             USBFS_1_CyDmaValidateDescriptor(channelNum, USBFS_1_DMA_DESCR0);
2232:Generated_Source\PSoC5/USBFS_1.c ****             
2233:Generated_Source\PSoC5/USBFS_1.c ****             if (USBFS_1_DmaEpBurstCntBackup[epNumber] > 1u)
2234:Generated_Source\PSoC5/USBFS_1.c ****             {
2235:Generated_Source\PSoC5/USBFS_1.c ****                 USBFS_1_CyDmaValidateDescriptor(channelNum, USBFS_1_DMA_DESCR1);
2236:Generated_Source\PSoC5/USBFS_1.c ****             }
2237:Generated_Source\PSoC5/USBFS_1.c **** 
2238:Generated_Source\PSoC5/USBFS_1.c ****             /* Enable DMA channel: configuration complete. */
2239:Generated_Source\PSoC5/USBFS_1.c ****             USBFS_1_CyDmaChEnable(channelNum);
2240:Generated_Source\PSoC5/USBFS_1.c **** 
2241:Generated_Source\PSoC5/USBFS_1.c ****             /* OUT endpoint has to be armed again by user when DMA transfers have been completed.
2242:Generated_Source\PSoC5/USBFS_1.c ****             * NO_EVENT_PENDING: notifies that data has been copied from endpoint buffer.
2243:Generated_Source\PSoC5/USBFS_1.c ****             */
2244:Generated_Source\PSoC5/USBFS_1.c ****         }
2245:Generated_Source\PSoC5/USBFS_1.c ****         #endif /* (USBFS_1_EP_MANAGEMENT_DMA_AUTO) */
2246:Generated_Source\PSoC5/USBFS_1.c ****     #endif /* (USBFS_1_EP_MANAGEMENT_MANUAL) */
ARM GAS  C:\Users\Alex\AppData\Local\Temp\ccapzahD.s 			page 57


2247:Generated_Source\PSoC5/USBFS_1.c ****     }
2248:Generated_Source\PSoC5/USBFS_1.c ****     else
2249:Generated_Source\PSoC5/USBFS_1.c ****     {
2250:Generated_Source\PSoC5/USBFS_1.c ****         length = 0u;
2251:Generated_Source\PSoC5/USBFS_1.c ****     }
2252:Generated_Source\PSoC5/USBFS_1.c **** 
2253:Generated_Source\PSoC5/USBFS_1.c ****     return (length);
2254:Generated_Source\PSoC5/USBFS_1.c **** }
2255:Generated_Source\PSoC5/USBFS_1.c **** #endif /* (USBFS_1_16BITS_EP_ACCESS_ENABLE) */
2256:Generated_Source\PSoC5/USBFS_1.c **** 
2257:Generated_Source\PSoC5/USBFS_1.c **** 
2258:Generated_Source\PSoC5/USBFS_1.c **** /*******************************************************************************
2259:Generated_Source\PSoC5/USBFS_1.c **** * Function Name: USBFS_1_EnableOutEP
2260:Generated_Source\PSoC5/USBFS_1.c **** ****************************************************************************//**
2261:Generated_Source\PSoC5/USBFS_1.c **** *
2262:Generated_Source\PSoC5/USBFS_1.c **** *  This function enables the specified endpoint for OUT transfers. Do not call
2263:Generated_Source\PSoC5/USBFS_1.c **** *  this function for IN endpoints.
2264:Generated_Source\PSoC5/USBFS_1.c **** *
2265:Generated_Source\PSoC5/USBFS_1.c **** *  \param epNumber: Contains the data endpoint number. Valid values are between
2266:Generated_Source\PSoC5/USBFS_1.c **** *  1 and 8.
2267:Generated_Source\PSoC5/USBFS_1.c **** *
2268:Generated_Source\PSoC5/USBFS_1.c **** * \globalvars
2269:Generated_Source\PSoC5/USBFS_1.c **** *
2270:Generated_Source\PSoC5/USBFS_1.c **** *  \ref USBFS_1_EP[epNumber].apiEpState - set to NO_EVENT_PENDING
2271:Generated_Source\PSoC5/USBFS_1.c **** *
2272:Generated_Source\PSoC5/USBFS_1.c **** * \reentrant
2273:Generated_Source\PSoC5/USBFS_1.c **** *  No.
2274:Generated_Source\PSoC5/USBFS_1.c **** *
2275:Generated_Source\PSoC5/USBFS_1.c **** *******************************************************************************/
2276:Generated_Source\PSoC5/USBFS_1.c **** void USBFS_1_EnableOutEP(uint8 epNumber) 
2277:Generated_Source\PSoC5/USBFS_1.c **** {
 933              		.loc 1 2277 0
 934              		.cfi_startproc
 935              		@ args = 0, pretend = 0, frame = 0
 936              		@ frame_needed = 0, uses_anonymous_args = 0
 937              		@ link register save eliminated.
 938              	.LVL68:
2278:Generated_Source\PSoC5/USBFS_1.c ****     if ((epNumber > USBFS_1_EP0) && (epNumber < USBFS_1_MAX_EP))
 939              		.loc 1 2278 0
 940 0000 431E     		subs	r3, r0, #1
 941 0002 DBB2     		uxtb	r3, r3
 942 0004 072B     		cmp	r3, #7
 943 0006 0BD8     		bhi	.L65
2279:Generated_Source\PSoC5/USBFS_1.c ****     {
2280:Generated_Source\PSoC5/USBFS_1.c ****         USBFS_1_EP[epNumber].apiEpState = USBFS_1_NO_EVENT_PENDING;
 944              		.loc 1 2280 0
 945 0008 4200     		lsls	r2, r0, #1
 946 000a 0244     		add	r2, r2, r0
 947 000c 9300     		lsls	r3, r2, #2
 948 000e 054A     		ldr	r2, .L67
 949 0010 1344     		add	r3, r3, r2
 950 0012 0022     		movs	r2, #0
 951 0014 5A70     		strb	r2, [r3, #1]
2281:Generated_Source\PSoC5/USBFS_1.c **** 
2282:Generated_Source\PSoC5/USBFS_1.c ****         /* Enable OUT endpoint to be written by Host. */
2283:Generated_Source\PSoC5/USBFS_1.c ****         USBFS_1_SIE_EP_BASE.sieEp[epNumber].epCr0 = USBFS_1_EP[epNumber].epMode;
 952              		.loc 1 2283 0
ARM GAS  C:\Users\Alex\AppData\Local\Temp\ccapzahD.s 			page 58


 953 0016 5A79     		ldrb	r2, [r3, #5]	@ zero_extendqisi2
 954 0018 D2B2     		uxtb	r2, r2
 955 001a 0001     		lsls	r0, r0, #4
 956              	.LVL69:
 957 001c 024B     		ldr	r3, .L67+4
 958 001e 1A54     		strb	r2, [r3, r0]
 959              	.L65:
 960 0020 7047     		bx	lr
 961              	.L68:
 962 0022 00BF     		.align	2
 963              	.L67:
 964 0024 00000000 		.word	USBFS_1_EP
 965 0028 FE5F0040 		.word	1073766398
 966              		.cfi_endproc
 967              	.LFE13:
 968              		.size	USBFS_1_EnableOutEP, .-USBFS_1_EnableOutEP
 969              		.section	.text.USBFS_1_ReadOutEP,"ax",%progbits
 970              		.align	2
 971              		.global	USBFS_1_ReadOutEP
 972              		.thumb
 973              		.thumb_func
 974              		.type	USBFS_1_ReadOutEP, %function
 975              	USBFS_1_ReadOutEP:
 976              	.LFB12:
1655:Generated_Source\PSoC5/USBFS_1.c ****     if ((pData != NULL) && (epNumber > USBFS_1_EP0) && (epNumber < USBFS_1_MAX_EP))
 977              		.loc 1 1655 0
 978              		.cfi_startproc
 979              		@ args = 0, pretend = 0, frame = 0
 980              		@ frame_needed = 0, uses_anonymous_args = 0
 981              	.LVL70:
 982 0000 70B5     		push	{r4, r5, r6, lr}
 983              		.cfi_def_cfa_offset 16
 984              		.cfi_offset 4, -16
 985              		.cfi_offset 5, -12
 986              		.cfi_offset 6, -8
 987              		.cfi_offset 14, -4
1656:Generated_Source\PSoC5/USBFS_1.c ****     {
 988              		.loc 1 1656 0
 989 0002 D9B1     		cbz	r1, .L74
 990 0004 0546     		mov	r5, r0
 991 0006 1446     		mov	r4, r2
 992 0008 0E46     		mov	r6, r1
1656:Generated_Source\PSoC5/USBFS_1.c ****     {
 993              		.loc 1 1656 0 is_stmt 0 discriminator 1
 994 000a C8B1     		cbz	r0, .L75
1656:Generated_Source\PSoC5/USBFS_1.c ****     {
 995              		.loc 1 1656 0 discriminator 2
 996 000c 0828     		cmp	r0, #8
 997 000e 19D8     		bhi	.L76
1660:Generated_Source\PSoC5/USBFS_1.c ****     #endif /* (!USBFS_1_EP_MANAGEMENT_DMA_AUTO) */
 998              		.loc 1 1660 0 is_stmt 1
 999 0010 FFF7FEFF 		bl	USBFS_1_GetEPCount
 1000              	.LVL71:
 1001 0014 A042     		cmp	r0, r4
 1002 0016 03D2     		bcs	.L71
1660:Generated_Source\PSoC5/USBFS_1.c ****     #endif /* (!USBFS_1_EP_MANAGEMENT_DMA_AUTO) */
 1003              		.loc 1 1660 0 is_stmt 0 discriminator 1
ARM GAS  C:\Users\Alex\AppData\Local\Temp\ccapzahD.s 			page 59


 1004 0018 2846     		mov	r0, r5
 1005 001a FFF7FEFF 		bl	USBFS_1_GetEPCount
 1006              	.LVL72:
 1007 001e 0446     		mov	r4, r0
 1008              	.L71:
 1009              	.LVL73:
 1010              	.LBB4:
1667:Generated_Source\PSoC5/USBFS_1.c ****             {
 1011              		.loc 1 1667 0 is_stmt 1 discriminator 4
 1012 0020 0023     		movs	r3, #0
 1013 0022 05E0     		b	.L72
 1014              	.LVL74:
 1015              	.L73:
1669:Generated_Source\PSoC5/USBFS_1.c ****             }
 1016              		.loc 1 1669 0 discriminator 3
 1017 0024 2901     		lsls	r1, r5, #4
 1018 0026 094A     		ldr	r2, .L78
 1019 0028 525C     		ldrb	r2, [r2, r1]	@ zero_extendqisi2
 1020 002a F254     		strb	r2, [r6, r3]
1667:Generated_Source\PSoC5/USBFS_1.c ****             {
 1021              		.loc 1 1667 0 discriminator 3
 1022 002c 0133     		adds	r3, r3, #1
 1023              	.LVL75:
 1024 002e 9BB2     		uxth	r3, r3
 1025              	.LVL76:
 1026              	.L72:
1667:Generated_Source\PSoC5/USBFS_1.c ****             {
 1027              		.loc 1 1667 0 is_stmt 0 discriminator 1
 1028 0030 A342     		cmp	r3, r4
 1029 0032 F7D3     		bcc	.L73
 1030              	.LBE4:
1674:Generated_Source\PSoC5/USBFS_1.c ****     #else
 1031              		.loc 1 1674 0 is_stmt 1
 1032 0034 2846     		mov	r0, r5
 1033 0036 FFF7FEFF 		bl	USBFS_1_EnableOutEP
 1034              	.LVL77:
 1035 003a 04E0     		b	.L70
 1036              	.LVL78:
 1037              	.L74:
1820:Generated_Source\PSoC5/USBFS_1.c ****     }
 1038              		.loc 1 1820 0
 1039 003c 0024     		movs	r4, #0
 1040 003e 02E0     		b	.L70
 1041              	.L75:
 1042 0040 0024     		movs	r4, #0
 1043 0042 00E0     		b	.L70
 1044              	.L76:
 1045 0044 0024     		movs	r4, #0
 1046              	.LVL79:
 1047              	.L70:
1824:Generated_Source\PSoC5/USBFS_1.c **** 
 1048              		.loc 1 1824 0
 1049 0046 2046     		mov	r0, r4
 1050 0048 70BD     		pop	{r4, r5, r6, pc}
 1051              	.LVL80:
 1052              	.L79:
 1053 004a 00BF     		.align	2
ARM GAS  C:\Users\Alex\AppData\Local\Temp\ccapzahD.s 			page 60


 1054              	.L78:
 1055 004c 78600040 		.word	1073766520
 1056              		.cfi_endproc
 1057              	.LFE12:
 1058              		.size	USBFS_1_ReadOutEP, .-USBFS_1_ReadOutEP
 1059              		.section	.text.USBFS_1_DisableOutEP,"ax",%progbits
 1060              		.align	2
 1061              		.global	USBFS_1_DisableOutEP
 1062              		.thumb
 1063              		.thumb_func
 1064              		.type	USBFS_1_DisableOutEP, %function
 1065              	USBFS_1_DisableOutEP:
 1066              	.LFB14:
2284:Generated_Source\PSoC5/USBFS_1.c ****         
2285:Generated_Source\PSoC5/USBFS_1.c ****     }
2286:Generated_Source\PSoC5/USBFS_1.c **** }
2287:Generated_Source\PSoC5/USBFS_1.c **** 
2288:Generated_Source\PSoC5/USBFS_1.c **** 
2289:Generated_Source\PSoC5/USBFS_1.c **** /*******************************************************************************
2290:Generated_Source\PSoC5/USBFS_1.c **** * Function Name: USBFS_1_DisableOutEP
2291:Generated_Source\PSoC5/USBFS_1.c **** ****************************************************************************//**
2292:Generated_Source\PSoC5/USBFS_1.c **** *
2293:Generated_Source\PSoC5/USBFS_1.c **** *  This function disables the specified USBFS OUT endpoint. Do not call this
2294:Generated_Source\PSoC5/USBFS_1.c **** *  function for IN endpoints.
2295:Generated_Source\PSoC5/USBFS_1.c **** *
2296:Generated_Source\PSoC5/USBFS_1.c **** *  \param epNumber: Contains the data endpoint number.
2297:Generated_Source\PSoC5/USBFS_1.c **** *            Valid values are between 1 and 8.
2298:Generated_Source\PSoC5/USBFS_1.c **** *
2299:Generated_Source\PSoC5/USBFS_1.c **** *******************************************************************************/
2300:Generated_Source\PSoC5/USBFS_1.c **** void USBFS_1_DisableOutEP(uint8 epNumber) 
2301:Generated_Source\PSoC5/USBFS_1.c **** {
 1067              		.loc 1 2301 0
 1068              		.cfi_startproc
 1069              		@ args = 0, pretend = 0, frame = 0
 1070              		@ frame_needed = 0, uses_anonymous_args = 0
 1071              		@ link register save eliminated.
 1072              	.LVL81:
2302:Generated_Source\PSoC5/USBFS_1.c ****     if ((epNumber > USBFS_1_EP0) && (epNumber < USBFS_1_MAX_EP))
 1073              		.loc 1 2302 0
 1074 0000 431E     		subs	r3, r0, #1
 1075 0002 DBB2     		uxtb	r3, r3
 1076 0004 072B     		cmp	r3, #7
 1077 0006 03D8     		bhi	.L80
2303:Generated_Source\PSoC5/USBFS_1.c ****     {
2304:Generated_Source\PSoC5/USBFS_1.c ****         /* Set NAK response for OUT endpoint. */
2305:Generated_Source\PSoC5/USBFS_1.c ****         USBFS_1_SIE_EP_BASE.sieEp[epNumber].epCr0 = USBFS_1_MODE_NAK_OUT;
 1078              		.loc 1 2305 0
 1079 0008 0001     		lsls	r0, r0, #4
 1080              	.LVL82:
 1081 000a 024B     		ldr	r3, .L82
 1082 000c 0822     		movs	r2, #8
 1083 000e 1A54     		strb	r2, [r3, r0]
 1084              	.L80:
 1085 0010 7047     		bx	lr
 1086              	.L83:
 1087 0012 00BF     		.align	2
 1088              	.L82:
ARM GAS  C:\Users\Alex\AppData\Local\Temp\ccapzahD.s 			page 61


 1089 0014 FE5F0040 		.word	1073766398
 1090              		.cfi_endproc
 1091              	.LFE14:
 1092              		.size	USBFS_1_DisableOutEP, .-USBFS_1_DisableOutEP
 1093              		.section	.text.USBFS_1_Force,"ax",%progbits
 1094              		.align	2
 1095              		.global	USBFS_1_Force
 1096              		.thumb
 1097              		.thumb_func
 1098              		.type	USBFS_1_Force, %function
 1099              	USBFS_1_Force:
 1100              	.LFB15:
2306:Generated_Source\PSoC5/USBFS_1.c ****     }
2307:Generated_Source\PSoC5/USBFS_1.c **** }
2308:Generated_Source\PSoC5/USBFS_1.c **** 
2309:Generated_Source\PSoC5/USBFS_1.c **** 
2310:Generated_Source\PSoC5/USBFS_1.c **** /*******************************************************************************
2311:Generated_Source\PSoC5/USBFS_1.c **** * Function Name: USBFS_1_Force
2312:Generated_Source\PSoC5/USBFS_1.c **** ****************************************************************************//**
2313:Generated_Source\PSoC5/USBFS_1.c **** *
2314:Generated_Source\PSoC5/USBFS_1.c **** *  This function forces a USB J, K, or SE0 state on the D+/D– lines. It provides
2315:Generated_Source\PSoC5/USBFS_1.c **** *  the necessary mechanism for a USB device application to perform a USB Remote
2316:Generated_Source\PSoC5/USBFS_1.c **** *  Wakeup. For more information, see the USB 2.0 Specification for details on
2317:Generated_Source\PSoC5/USBFS_1.c **** *  Suspend and Resume.
2318:Generated_Source\PSoC5/USBFS_1.c **** *
2319:Generated_Source\PSoC5/USBFS_1.c **** *  \param state A byte indicating which of the four bus states to enable.
2320:Generated_Source\PSoC5/USBFS_1.c **** *        Symbolic names  and their associated values are listed here:
2321:Generated_Source\PSoC5/USBFS_1.c **** *    State                      |Description
2322:Generated_Source\PSoC5/USBFS_1.c **** *    ---------------------------|----------------------------------------------
2323:Generated_Source\PSoC5/USBFS_1.c **** *    USBFS_1_FORCE_J   | Force a J State onto the D+/D– lines
2324:Generated_Source\PSoC5/USBFS_1.c **** *    USBFS_1_FORCE_K   | Force a K State onto the D+/D– lines
2325:Generated_Source\PSoC5/USBFS_1.c **** *    USBFS_1_FORCE_SE0 | Force a Single Ended 0 onto the D+/D– lines
2326:Generated_Source\PSoC5/USBFS_1.c **** *    USBFS_1_FORCE_NONE| Return bus to SIE control
2327:Generated_Source\PSoC5/USBFS_1.c **** *
2328:Generated_Source\PSoC5/USBFS_1.c **** *
2329:Generated_Source\PSoC5/USBFS_1.c **** *******************************************************************************/
2330:Generated_Source\PSoC5/USBFS_1.c **** void USBFS_1_Force(uint8 bState) 
2331:Generated_Source\PSoC5/USBFS_1.c **** {
 1101              		.loc 1 2331 0
 1102              		.cfi_startproc
 1103              		@ args = 0, pretend = 0, frame = 0
 1104              		@ frame_needed = 0, uses_anonymous_args = 0
 1105              		@ link register save eliminated.
 1106              	.LVL83:
2332:Generated_Source\PSoC5/USBFS_1.c ****     /* This registers is used only for manual control of SIE (no masking is
2333:Generated_Source\PSoC5/USBFS_1.c ****     * needed before write into it).
2334:Generated_Source\PSoC5/USBFS_1.c ****     */
2335:Generated_Source\PSoC5/USBFS_1.c ****     USBFS_1_USBIO_CR0_REG = bState;
 1107              		.loc 1 2335 0
 1108 0000 014B     		ldr	r3, .L85
 1109 0002 1870     		strb	r0, [r3]
 1110 0004 7047     		bx	lr
 1111              	.L86:
 1112 0006 00BF     		.align	2
 1113              	.L85:
 1114 0008 10600040 		.word	1073766416
 1115              		.cfi_endproc
ARM GAS  C:\Users\Alex\AppData\Local\Temp\ccapzahD.s 			page 62


 1116              	.LFE15:
 1117              		.size	USBFS_1_Force, .-USBFS_1_Force
 1118              		.section	.text.USBFS_1_GetEPAckState,"ax",%progbits
 1119              		.align	2
 1120              		.global	USBFS_1_GetEPAckState
 1121              		.thumb
 1122              		.thumb_func
 1123              		.type	USBFS_1_GetEPAckState, %function
 1124              	USBFS_1_GetEPAckState:
 1125              	.LFB16:
2336:Generated_Source\PSoC5/USBFS_1.c **** }
2337:Generated_Source\PSoC5/USBFS_1.c **** 
2338:Generated_Source\PSoC5/USBFS_1.c **** 
2339:Generated_Source\PSoC5/USBFS_1.c **** /*******************************************************************************
2340:Generated_Source\PSoC5/USBFS_1.c **** * Function Name: USBFS_1_GetEPAckState
2341:Generated_Source\PSoC5/USBFS_1.c **** ****************************************************************************//**
2342:Generated_Source\PSoC5/USBFS_1.c **** *
2343:Generated_Source\PSoC5/USBFS_1.c **** *  This function determines whether an ACK transaction occurred on this endpoint
2344:Generated_Source\PSoC5/USBFS_1.c **** *  by reading the ACK bit in the control register of the endpoint. It does not
2345:Generated_Source\PSoC5/USBFS_1.c **** *  clear the ACK bit.
2346:Generated_Source\PSoC5/USBFS_1.c **** *
2347:Generated_Source\PSoC5/USBFS_1.c **** *  \param epNumber Contains the data endpoint number.
2348:Generated_Source\PSoC5/USBFS_1.c **** *            Valid values are between 1 and 8.
2349:Generated_Source\PSoC5/USBFS_1.c **** *
2350:Generated_Source\PSoC5/USBFS_1.c **** *  \return
2351:Generated_Source\PSoC5/USBFS_1.c **** *  If an ACKed transaction occurred, this function returns a non-zero value.
2352:Generated_Source\PSoC5/USBFS_1.c **** *  Otherwise, it returns zero.
2353:Generated_Source\PSoC5/USBFS_1.c **** *
2354:Generated_Source\PSoC5/USBFS_1.c **** *******************************************************************************/
2355:Generated_Source\PSoC5/USBFS_1.c **** uint8 USBFS_1_GetEPAckState(uint8 epNumber) 
2356:Generated_Source\PSoC5/USBFS_1.c **** {
 1126              		.loc 1 2356 0
 1127              		.cfi_startproc
 1128              		@ args = 0, pretend = 0, frame = 0
 1129              		@ frame_needed = 0, uses_anonymous_args = 0
 1130              		@ link register save eliminated.
 1131              	.LVL84:
2357:Generated_Source\PSoC5/USBFS_1.c ****     uint8 cr = 0u;
2358:Generated_Source\PSoC5/USBFS_1.c **** 
2359:Generated_Source\PSoC5/USBFS_1.c ****     if ((epNumber > USBFS_1_EP0) && (epNumber < USBFS_1_MAX_EP))
 1132              		.loc 1 2359 0
 1133 0000 431E     		subs	r3, r0, #1
 1134 0002 DBB2     		uxtb	r3, r3
 1135 0004 072B     		cmp	r3, #7
 1136 0006 06D8     		bhi	.L89
2360:Generated_Source\PSoC5/USBFS_1.c ****     {
2361:Generated_Source\PSoC5/USBFS_1.c ****         cr = USBFS_1_SIE_EP_BASE.sieEp[epNumber].epCr0 & USBFS_1_MODE_ACKD;
 1137              		.loc 1 2361 0
 1138 0008 0001     		lsls	r0, r0, #4
 1139              	.LVL85:
 1140 000a 044B     		ldr	r3, .L90
 1141 000c 185C     		ldrb	r0, [r3, r0]	@ zero_extendqisi2
 1142 000e 00F01000 		and	r0, r0, #16
 1143 0012 C0B2     		uxtb	r0, r0
 1144              	.LVL86:
 1145 0014 7047     		bx	lr
 1146              	.LVL87:
ARM GAS  C:\Users\Alex\AppData\Local\Temp\ccapzahD.s 			page 63


 1147              	.L89:
2357:Generated_Source\PSoC5/USBFS_1.c ****     uint8 cr = 0u;
 1148              		.loc 1 2357 0
 1149 0016 0020     		movs	r0, #0
 1150              	.LVL88:
2362:Generated_Source\PSoC5/USBFS_1.c ****     }
2363:Generated_Source\PSoC5/USBFS_1.c **** 
2364:Generated_Source\PSoC5/USBFS_1.c ****     return ((uint8) cr);
2365:Generated_Source\PSoC5/USBFS_1.c **** }
 1151              		.loc 1 2365 0
 1152 0018 7047     		bx	lr
 1153              	.L91:
 1154 001a 00BF     		.align	2
 1155              	.L90:
 1156 001c FE5F0040 		.word	1073766398
 1157              		.cfi_endproc
 1158              	.LFE16:
 1159              		.size	USBFS_1_GetEPAckState, .-USBFS_1_GetEPAckState
 1160              		.section	.text.USBFS_1_SetPowerStatus,"ax",%progbits
 1161              		.align	2
 1162              		.global	USBFS_1_SetPowerStatus
 1163              		.thumb
 1164              		.thumb_func
 1165              		.type	USBFS_1_SetPowerStatus, %function
 1166              	USBFS_1_SetPowerStatus:
 1167              	.LFB17:
2366:Generated_Source\PSoC5/USBFS_1.c **** 
2367:Generated_Source\PSoC5/USBFS_1.c **** 
2368:Generated_Source\PSoC5/USBFS_1.c **** /*******************************************************************************
